(dp0
S'B89.png'
p1
(dp2
S'neutral'
p3
F0.9466966
sS'happiness'
p4
F0.000628096634
sS'disgust'
p5
F0.000152416862
sS'anger'
p6
F0.000261586043
sS'surprise'
p7
F5.145897e-05
sS'fear'
p8
F1.83794e-05
sS'sadness'
p9
F0.05122393
sS'contempt'
p10
F0.0009675284
ssS'A259.png'
p11
(dp12
g3
F0.146802992
sg4
F0.597743034
sg5
F0.116059646
sg6
F0.00324569852
sg7
F0.00180902041
sg8
F0.00421418855
sg9
F0.0284655187
sg10
F0.101659924
ssS'A361.png'
p13
(dp14
g3
F0.735336244
sg4
F0.257586032
sg5
F9.143058e-05
sg6
F5.373745e-06
sg7
F7.833082e-06
sg8
F1.39510676e-05
sg9
F0.00162130746
sg10
F0.00533782551
ssS'A206.png'
p15
(dp16
g3
F2.56515822e-08
sg4
F1.0
sg5
F1.93974925e-09
sg6
F1.870959e-12
sg7
F5.245953e-12
sg8
F2.82722657e-13
sg9
F1.41778585e-11
sg10
F2.30944708e-10
ssS'A390.png'
p17
(dp18
g3
F0.809761345
sg4
F0.1892161
sg5
F1.67844348e-06
sg6
F4.95801658e-07
sg7
F2.5910046e-07
sg8
F2.652064e-07
sg9
F0.000204221476
sg10
F0.0008156318
ssS'A227.png'
p19
(dp20
g3
F9.667026e-07
sg4
F0.9999979
sg5
F9.819704e-08
sg6
F2.23517544e-14
sg7
F2.23323443e-12
sg8
F1.63128923e-14
sg9
F1.6098468e-11
sg10
F1.03000389e-06
ssS'A079.png'
p21
(dp22
g3
F0.000629213348
sg4
F2.64558764e-07
sg5
F0.000142963065
sg6
F2.67601452e-09
sg7
F8.910382e-09
sg8
F2.194083e-05
sg9
F0.9991346
sg10
F7.102256e-05
ssS'A086.png'
p23
(dp24
g3
F0.00165636034
sg4
F4.28554756e-08
sg5
F4.08825945e-05
sg6
F3.11157766e-09
sg7
F7.023724e-08
sg8
F0.000101261459
sg9
F0.9981847
sg10
F1.66922546e-05
ssS'A146.png'
p25
(dp26
g3
F0.0769677162
sg4
F0.9204572
sg5
F0.000158913521
sg6
F1.74111665e-05
sg7
F7.886978e-06
sg8
F7.674002e-07
sg9
F1.25676115e-05
sg10
F0.00237754919
ssS'A367.png'
p27
(dp28
g3
F0.7551548
sg4
F0.18991369
sg5
F0.00109961524
sg6
F8.1279155e-05
sg7
F3.43153442e-05
sg8
F6.8323e-05
sg9
F0.007593643
sg10
F0.04605437
ssS'B78.png'
p29
(dp30
g3
F0.957888067
sg4
F0.00405512145
sg5
F0.000578972045
sg6
F0.0007693841
sg7
F0.000153612011
sg8
F5.19036439e-05
sg9
F0.0327705964
sg10
F0.00373232015
ssS'C60.png'
p31
(dp32
g3
F0.08913342
sg4
F0.798501253
sg5
F0.0348076522
sg6
F0.000675443735
sg7
F0.000187721787
sg8
F0.000578609935
sg9
F0.00371114141
sg10
F0.07240479
ssS'A074.png'
p33
(dp34
g3
F0.00215425948
sg4
F1.9111626e-06
sg5
F0.000275593251
sg6
F1.76985555e-08
sg7
F3.091454e-07
sg8
F0.0002851404
sg9
F0.99701196
sg10
F0.0002707798
ssS'B16.png'
p35
(dp36
g3
F1.71350322e-07
sg4
F0.9999998
sg5
F3.08357159e-12
sg6
F4.800803e-14
sg7
F3.05824485e-12
sg8
F2.50247922e-15
sg9
F2.916036e-14
sg10
F1.49610557e-09
ssS'A332.png'
p37
(dp38
g3
F0.9332814
sg4
F0.0336877555
sg5
F0.000327480258
sg6
F0.0003909376
sg7
F3.98692064e-05
sg8
F1.11145264e-05
sg9
F0.00137598231
sg10
F0.0308854524
ssS'A356.png'
p39
(dp40
g3
F0.871464133
sg4
F0.1120219
sg5
F0.000203983291
sg6
F8.497371e-05
sg7
F0.000256092084
sg8
F0.000172604021
sg9
F0.00407320075
sg10
F0.0117231291
ssS'A179.png'
p41
(dp42
g3
F0.962537766
sg4
F0.004810112
sg5
F0.0005472851
sg6
F0.000417795585
sg7
F0.000175773326
sg8
F4.73521723e-05
sg9
F0.0274825338
sg10
F0.00398138445
ssS'C54.png'
p43
(dp44
g3
F0.08334515
sg4
F0.8688368
sg5
F0.0123077454
sg6
F0.000209608712
sg7
F8.15331441e-05
sg8
F8.926373e-05
sg9
F0.000325808331
sg10
F0.0348040834
ssS'A109.png'
p45
(dp46
g3
F4.38948966e-09
sg4
F1.0
sg5
F5.82695e-14
sg6
F2.04764226e-17
sg7
F3.15381537e-15
sg8
F5.584372e-20
sg9
F1.59785966e-17
sg10
F4.965483e-11
ssS'A368.png'
p47
(dp48
g3
F0.8254968
sg4
F0.152041823
sg5
F0.000252349884
sg6
F1.34735237e-05
sg7
F2.90638286e-06
sg8
F7.703017e-06
sg9
F0.00330892042
sg10
F0.01887605
ssS'B41.png'
p49
(dp50
g3
F0.02797451
sg4
F0.9716064
sg5
F4.454151e-06
sg6
F8.32141e-08
sg7
F4.92416348e-08
sg8
F1.34232936e-09
sg9
F7.065657e-08
sg10
F0.00041443322
ssS'B80.png'
p51
(dp52
g3
F0.9485674
sg4
F0.00374373444
sg5
F0.00055912364
sg6
F0.000371120637
sg7
F9.09504961e-05
sg8
F3.500667e-05
sg9
F0.0441257544
sg10
F0.0025069227
ssS'A029.png'
p53
(dp54
g3
F0.001282873
sg4
F0.9983954
sg5
F2.64478149e-06
sg6
F8.872727e-10
sg7
F1.07749067e-07
sg8
F3.12253441e-08
sg9
F4.37855476e-08
sg10
F0.0003189379
ssS'B62.png'
p55
(dp56
g3
F0.884866834
sg4
F0.111187972
sg5
F3.93299961e-05
sg6
F7.833125e-05
sg7
F1.89703769e-05
sg8
F3.790054e-06
sg9
F0.00125562807
sg10
F0.002549131
ssS'A156.png'
p57
(dp58
g3
F0.436543584
sg4
F0.5384865
sg5
F0.00272764661
sg6
F0.0004623952
sg7
F0.000223560055
sg8
F5.45547773e-05
sg9
F0.0016985921
sg10
F0.0198032074
ssS'A236.png'
p59
(dp60
g3
F0.000158243871
sg4
F0.999771237
sg5
F1.23127611e-05
sg6
F1.008288e-10
sg7
F2.55509813e-09
sg8
F4.69912755e-11
sg9
F8.384174e-09
sg10
F5.819313e-05
ssS'A165.png'
p61
(dp62
g3
F0.908858657
sg4
F0.08816478
sg5
F4.240801e-05
sg6
F7.91007e-05
sg7
F1.834122e-05
sg8
F4.01711441e-06
sg9
F0.00167518563
sg10
F0.00115752884
ssS'A044.png'
p63
(dp64
g3
F0.04407633
sg4
F0.790404856
sg5
F0.00118647423
sg6
F1.516309e-06
sg7
F2.01006042e-05
sg8
F0.00685715675
sg9
F0.149459958
sg10
F0.007993589
ssS'A90.png'
p65
(dp66
g3
F0.00568410754
sg4
F2.92788144e-07
sg5
F0.0005122209
sg6
F3.1732668e-07
sg7
F3.464026e-06
sg8
F0.000757828238
sg9
F0.9928758
sg10
F0.000165943347
ssS'C17.png'
p67
(dp68
g3
F4.83898823e-08
sg4
F0.99999994
sg5
F1.27496058e-09
sg6
F1.269939e-13
sg7
F7.332904e-13
sg8
F5.41253376e-14
sg9
F3.0135993e-13
sg10
F1.99512629e-09
ssS'B72.png'
p69
(dp70
g3
F0.960000634
sg4
F0.0107165687
sg5
F0.0004605283
sg6
F0.00026063883
sg7
F0.000211538878
sg8
F6.443799e-05
sg9
F0.0232443046
sg10
F0.00504132174
ssS'B26.png'
p71
(dp72
g3
F2.74939543e-06
sg4
F0.999997258
sg5
F7.12133963e-11
sg6
F1.75590879e-13
sg7
F1.29045158e-12
sg8
F1.44593532e-15
sg9
F7.718877e-13
sg10
F9.249801e-09
ssS'C77.png'
p73
(dp74
g3
F0.466879785
sg4
F0.05569531
sg5
F0.1530272
sg6
F0.0133796018
sg7
F0.000788807636
sg8
F0.00150990509
sg9
F0.06289565
sg10
F0.245823726
ssS'C49.png'
p75
(dp76
g3
F0.0206862334
sg4
F0.962716043
sg5
F0.008865074
sg6
F4.61014633e-06
sg7
F6.39152677e-06
sg8
F3.55453767e-06
sg9
F5.8452737e-05
sg10
F0.00765961
ssS'A252.png'
p77
(dp78
g3
F0.02142277
sg4
F0.9457241
sg5
F0.0115156369
sg6
F2.71024237e-05
sg7
F1.47692663e-05
sg8
F1.85258e-05
sg9
F0.000152418215
sg10
F0.02112466
ssS'B82.png'
p79
(dp80
g3
F0.95719254
sg4
F0.00313183526
sg5
F0.000532188336
sg6
F0.0004485828
sg7
F0.0001179131
sg8
F3.851264e-05
sg9
F0.0359727
sg10
F0.00256569823
ssS'A266.png'
p81
(dp82
g3
F0.177667737
sg4
F0.5061657
sg5
F0.118883677
sg6
F0.00313145365
sg7
F0.00147198059
sg8
F0.007288817
sg9
F0.07431616
sg10
F0.111074485
ssS'A225.png'
p83
(dp84
g3
F2.76987578e-07
sg4
F0.9999995
sg5
F8.476563e-09
sg6
F1.5485231e-14
sg7
F8.72995361e-13
sg8
F2.21854632e-14
sg9
F3.5768272e-12
sg10
F1.72708681e-07
ssS'A29.png'
p85
(dp86
g3
F0.000415263872
sg4
F0.999403059
sg5
F1.87529815e-06
sg6
F1.297552e-10
sg7
F6.016236e-08
sg8
F2.80512857e-09
sg9
F4.633192e-09
sg10
F0.0001797531
ssS'A281.png'
p87
(dp88
g3
F0.511413932
sg4
F0.0266389381
sg5
F0.130864039
sg6
F0.0142156323
sg7
F0.000910922536
sg8
F0.00241746521
sg9
F0.139494747
sg10
F0.174044311
ssS'A258.png'
p89
(dp90
g3
F0.09613679
sg4
F0.78426373
sg5
F0.0474967174
sg6
F0.0006379635
sg7
F0.000238083259
sg8
F0.0006640416
sg9
F0.00408041431
sg10
F0.06648223
ssS'A011.png'
p91
(dp92
g3
F6.17249452e-06
sg4
F0.999991953
sg5
F2.06601758e-09
sg6
F4.2660813e-13
sg7
F4.79103944e-11
sg8
F7.50934471e-13
sg9
F3.145275e-13
sg10
F1.851517e-06
ssS'B24.png'
p93
(dp94
g3
F2.16959074e-06
sg4
F0.9999978
sg5
F1.00143574e-10
sg6
F4.56431e-13
sg7
F6.71585877e-12
sg8
F4.414403e-15
sg9
F2.27690615e-13
sg10
F7.30478833e-09
ssS'A71.png'
p95
(dp96
g3
F2.96394446e-05
sg4
F2.16805951e-08
sg5
F0.00047427183
sg6
F1.47477447e-10
sg7
F2.38918041e-09
sg8
F4.59422081e-05
sg9
F0.9994075
sg10
F4.267331e-05
ssS'A148.png'
p97
(dp98
g3
F0.16113095
sg4
F0.8332179
sg5
F0.000427451945
sg6
F6.35323959e-05
sg7
F1.66323171e-05
sg8
F1.96470887e-06
sg9
F5.50541663e-05
sg10
F0.005086471
ssS'A204.png'
p99
(dp100
g3
F1.839681e-08
sg4
F1.0
sg5
F3.23318838e-09
sg6
F1.0604153e-11
sg7
F1.30114261e-11
sg8
F5.65956223e-12
sg9
F7.05508638e-11
sg10
F1.79121815e-10
ssS'C79.png'
p101
(dp102
g3
F0.5217828
sg4
F0.0558616668
sg5
F0.106349982
sg6
F0.0128422286
sg7
F0.0009614932
sg8
F0.00102547
sg9
F0.0354589038
sg10
F0.265717417
ssS'A41.png'
p103
(dp104
g3
F0.0325064622
sg4
F0.8723144
sg5
F0.003558421
sg6
F2.649172e-05
sg7
F5.334751e-05
sg8
F0.0123372143
sg9
F0.06960167
sg10
F0.009602021
ssS'A194.png'
p105
(dp106
g3
F0.8950588
sg4
F0.0007906255
sg5
F0.000107019529
sg6
F0.000321210333
sg7
F0.000130329165
sg8
F3.41570558e-05
sg9
F0.102225892
sg10
F0.001331959
ssS'A095.png'
p107
(dp108
g3
F0.00173440774
sg4
F8.05361537e-08
sg5
F0.0006815319
sg6
F4.506586e-07
sg7
F7.184903e-07
sg8
F0.0004451754
sg9
F0.9962294
sg10
F0.000908239163
ssS'A279.png'
p109
(dp110
g3
F0.5217828
sg4
F0.0558616668
sg5
F0.106349982
sg6
F0.0128422286
sg7
F0.0009614932
sg8
F0.00102547
sg9
F0.0354589038
sg10
F0.265717417
ssS'A348.png'
p111
(dp112
g3
F0.969848752
sg4
F0.0155186215
sg5
F0.0006337671
sg6
F0.000337936275
sg7
F0.000231070488
sg8
F6.0453e-05
sg9
F0.00304370443
sg10
F0.0103257084
ssS'A010.png'
p113
(dp114
g3
F1.79359711e-06
sg4
F0.9999977
sg5
F1.99334926e-09
sg6
F8.59389938e-14
sg7
F8.510457e-12
sg8
F3.82291638e-13
sg9
F1.29665918e-13
sg10
F5.04912464e-07
ssS'C16.png'
p115
(dp116
g3
F1.99837977e-08
sg4
F1.0
sg5
F4.301025e-10
sg6
F9.065188e-14
sg7
F1.81240667e-12
sg8
F1.44781729e-13
sg9
F2.55850625e-13
sg10
F3.841526e-10
ssS'B14.png'
p117
(dp118
g3
F1.22920447e-08
sg4
F1.0
sg5
F3.25225449e-14
sg6
F7.970688e-16
sg7
F3.79301571e-13
sg8
F6.564038e-17
sg9
F1.59219049e-15
sg10
F6.12886044e-12
ssS'A340.png'
p119
(dp120
g3
F0.994586349
sg4
F0.003415739
sg5
F4.88417845e-06
sg6
F3.723628e-05
sg7
F0.0001258712
sg8
F8.434791e-06
sg9
F0.000133464026
sg10
F0.00168804545
ssS'C38.png'
p121
(dp122
g3
F0.000130936955
sg4
F0.9998373
sg5
F4.427069e-06
sg6
F4.62525643e-11
sg7
F3.08051229e-09
sg8
F3.18148528e-11
sg9
F1.77701753e-09
sg10
F2.73771766e-05
ssS'A139.png'
p123
(dp124
g3
F0.016091235
sg4
F0.983660936
sg5
F8.52632547e-06
sg6
F2.50701817e-07
sg7
F1.68029686e-07
sg8
F3.72714437e-09
sg9
F8.819248e-08
sg10
F0.000238779539
ssS'A59.png'
p125
(dp126
g3
F0.00962114
sg4
F0.00106665993
sg5
F0.000467821083
sg6
F1.98054735e-07
sg7
F1.44282535e-06
sg8
F0.00213940046
sg9
F0.985537767
sg10
F0.001165546
ssS'A311.png'
p127
(dp128
g3
F0.9657027
sg4
F0.004738647
sg5
F0.000403415819
sg6
F0.00188501866
sg7
F0.000370275666
sg8
F0.000212740546
sg9
F0.019621769
sg10
F0.007065447
ssS'A054.png'
p129
(dp130
g3
F0.08106918
sg4
F0.149755761
sg5
F0.00293265679
sg6
F8.739299e-06
sg7
F6.346656e-05
sg8
F0.0148136085
sg9
F0.744709551
sg10
F0.006647022
ssS'C47.png'
p131
(dp132
g3
F0.007850741
sg4
F0.989998341
sg5
F0.000683151535
sg6
F3.372931e-07
sg7
F1.91983872e-06
sg8
F2.53922281e-07
sg9
F1.19447668e-06
sg10
F0.00146408915
ssS'A376.png'
p133
(dp134
g3
F0.938852
sg4
F0.0534490161
sg5
F4.47244056e-05
sg6
F4.41709653e-06
sg7
F2.99507974e-06
sg8
F4.57013175e-06
sg9
F0.00149255688
sg10
F0.00614972366
ssS'A019.png'
p135
(dp136
g3
F7.138243e-05
sg4
F0.9998968
sg5
F6.47441638e-08
sg6
F2.11248623e-11
sg7
F1.577125e-09
sg8
F2.63695645e-11
sg9
F7.034711e-12
sg10
F3.174725e-05
ssS'C18.png'
p137
(dp138
g3
F3.205815e-08
sg4
F0.99999994
sg5
F5.434372e-10
sg6
F2.633545e-14
sg7
F7.6137653e-13
sg8
F1.00562386e-14
sg9
F3.261823e-13
sg10
F1.41674927e-09
ssS'A131.png'
p139
(dp140
g3
F0.0002361903
sg4
F0.999762833
sg5
F3.16010929e-09
sg6
F6.609584e-11
sg7
F5.15751664e-10
sg8
F6.318172e-13
sg9
F7.56510063e-11
sg10
F9.705319e-07
ssS'A154.png'
p141
(dp142
g3
F0.303612053
sg4
F0.680127144
sg5
F0.00167414837
sg6
F0.000182966542
sg7
F5.596931e-05
sg8
F1.729594e-05
sg9
F0.0005738389
sg10
F0.0137566049
ssS'A1.png'
p143
(dp144
g3
F2.25883173e-06
sg4
F0.9999971
sg5
F9.735615e-10
sg6
F4.795006e-14
sg7
F1.11532433e-11
sg8
F7.380784e-14
sg9
F2.28801336e-14
sg10
F6.594446e-07
ssS'A028.png'
p145
(dp146
g3
F0.000587942137
sg4
F0.9989618
sg5
F3.63258073e-06
sg6
F1.08544207e-09
sg7
F1.61535112e-07
sg8
F1.97593231e-08
sg9
F1.20338361e-08
sg10
F0.000446435559
ssS'A140.png'
p147
(dp148
g3
F0.0157783814
sg4
F0.983695
sg5
F7.574597e-06
sg6
F2.837294e-07
sg7
F1.18022712e-07
sg8
F4.18587653e-09
sg9
F1.46634747e-07
sg10
F0.0005185194
ssS'A027.png'
p149
(dp150
g3
F0.000726177532
sg4
F0.9989709
sg5
F4.87829675e-06
sg6
F1.91720617e-09
sg7
F3.06662457e-07
sg8
F4.76381423e-08
sg9
F8.979395e-09
sg10
F0.0002976466
ssS'A317.png'
p151
(dp152
g3
F0.989605367
sg4
F0.00255376915
sg5
F8.95450357e-05
sg6
F0.0003472816
sg7
F4.009922e-05
sg8
F6.62585853e-06
sg9
F0.00256683724
sg10
F0.004790446
ssS'C15.png'
p153
(dp154
g3
F1.35318331e-07
sg4
F0.9999998
sg5
F2.00127079e-08
sg6
F8.050332e-13
sg7
F3.38409682e-12
sg8
F6.402878e-13
sg9
F5.28720054e-11
sg10
F7.37480033e-09
ssS'A046.png'
p155
(dp156
g3
F0.0703115538
sg4
F0.811549842
sg5
F0.00144319749
sg6
F2.74959552e-06
sg7
F4.814137e-05
sg8
F0.008041652
sg9
F0.100935884
sg10
F0.00766699
ssS'A090.png'
p157
(dp158
g3
F0.00065818
sg4
F4.62020751e-08
sg5
F9.887874e-05
sg6
F2.48292515e-08
sg7
F2.37133957e-08
sg8
F1.848009e-05
sg9
F0.999054849
sg10
F0.000169502091
ssS'A031.png'
p159
(dp160
g3
F0.00250048656
sg4
F0.99657464
sg5
F9.563708e-06
sg6
F4.46154935e-09
sg7
F4.05744345e-07
sg8
F4.3146283e-08
sg9
F1.02421268e-07
sg10
F0.000914754637
ssS'C8.png'
p161
(dp162
g3
F1.56601132e-08
sg4
F1.0
sg5
F2.76103362e-09
sg6
F1.88558262e-12
sg7
F3.03032772e-12
sg8
F3.260293e-13
sg9
F3.07449448e-11
sg10
F1.0066737e-10
ssS'B98.png'
p163
(dp164
g3
F0.7651611
sg4
F0.00115884619
sg5
F0.0003726841
sg6
F0.0006674155
sg7
F9.707722e-05
sg8
F9.413409e-05
sg9
F0.228494912
sg10
F0.00395385548
ssS'A370.png'
p165
(dp166
g3
F0.720997334
sg4
F0.245182082
sg5
F0.0005425062
sg6
F1.630782e-05
sg7
F7.20388562e-06
sg8
F4.08142732e-05
sg9
F0.0052211564
sg10
F0.0279926229
ssS'B20.png'
p167
(dp168
g3
F7.184756e-07
sg4
F0.9999993
sg5
F4.42330166e-11
sg6
F9.02453635e-14
sg7
F6.46765736e-13
sg8
F1.015592e-15
sg9
F1.38706063e-13
sg10
F7.711198e-09
ssS'A062.png'
p169
(dp170
g3
F0.00149323267
sg4
F2.48909e-05
sg5
F0.000349516282
sg6
F2.086822e-08
sg7
F2.47523474e-07
sg8
F0.000647818029
sg9
F0.9972792
sg10
F0.000205067161
ssS'A184.png'
p171
(dp172
g3
F0.952623
sg4
F0.00215209345
sg5
F0.00053926697
sg6
F0.000473465974
sg7
F0.000117329262
sg8
F5.40091241e-05
sg9
F0.0387615375
sg10
F0.00527928863
ssS'A058.png'
p173
(dp174
g3
F0.009881466
sg4
F0.00359278219
sg5
F0.00137120916
sg6
F3.92814684e-07
sg7
F2.401124e-06
sg8
F0.00203167088
sg9
F0.9815187
sg10
F0.00160138228
ssS'A7.png'
p175
(dp176
g3
F1.707433e-06
sg4
F0.9999981
sg5
F3.56614432e-10
sg6
F1.39677048e-13
sg7
F7.49036944e-12
sg8
F8.966362e-14
sg9
F4.963134e-15
sg10
F2.21712952e-07
ssS'A43.png'
p177
(dp178
g3
F0.0331664979
sg4
F0.8831154
sg5
F0.000620352454
sg6
F3.00031616e-07
sg7
F1.56787082e-05
sg8
F0.001384173
sg9
F0.07762279
sg10
F0.004074772
ssS'A069.png'
p179
(dp180
g3
F2.43097275e-05
sg4
F2.91557747e-08
sg5
F0.0002634603
sg6
F1.910768e-10
sg7
F6.1864176e-09
sg8
F8.30689241e-05
sg9
F0.999601245
sg10
F2.79099659e-05
ssS'A082.png'
p181
(dp182
g3
F0.021493407
sg4
F6.72575561e-06
sg5
F0.000351090275
sg6
F5.599579e-07
sg7
F5.21003244e-07
sg8
F8.035061e-05
sg9
F0.977799356
sg10
F0.000267975644
ssS'B73.png'
p183
(dp184
g3
F0.9663468
sg4
F0.00664821966
sg5
F0.0003219844
sg6
F0.0002555676
sg7
F0.000186758058
sg8
F7.407075e-05
sg9
F0.022630142
sg10
F0.003536464
ssS'A295.png'
p185
(dp186
g3
F0.8219705
sg4
F0.00627748668
sg5
F0.0119753843
sg6
F0.0110812942
sg7
F0.00019310975
sg8
F0.0002524662
sg9
F0.109448478
sg10
F0.0388012454
ssS'C95.png'
p187
(dp188
g3
F0.8219705
sg4
F0.00627748668
sg5
F0.0119753843
sg6
F0.0110812942
sg7
F0.00019310975
sg8
F0.0002524662
sg9
F0.109448478
sg10
F0.0388012454
ssS'A246.png'
p189
(dp190
g3
F0.00169404852
sg4
F0.9973145
sg5
F0.00020636573
sg6
F2.7639814e-08
sg7
F1.04306395e-07
sg8
F1.07316067e-08
sg9
F1.3719972e-07
sg10
F0.000784786767
ssS'A61.png'
p191
(dp192
g3
F0.00506439572
sg4
F0.0003681983
sg5
F0.000389557128
sg6
F7.0351966e-08
sg7
F1.97877284e-06
sg8
F0.00231724768
sg9
F0.9914178
sg10
F0.000440756354
ssS'A123.png'
p193
(dp194
g3
F2.51137863e-06
sg4
F0.9999975
sg5
F9.25441737e-11
sg6
F2.8662695e-13
sg7
F2.61043639e-12
sg8
F1.946068e-15
sg9
F1.99591659e-13
sg10
F1.73561556e-08
ssS'B5.png'
p195
(dp196
g3
F1.51542268e-09
sg4
F1.0
sg5
F7.117896e-15
sg6
F5.36150362e-16
sg7
F4.53180733e-13
sg8
F4.40414748e-17
sg9
F1.04372154e-16
sg10
F1.77380907e-12
ssS'A186.png'
p197
(dp198
g3
F0.942873
sg4
F0.00117146038
sg5
F0.000351477967
sg6
F0.0002538186
sg7
F7.943944e-05
sg8
F3.04267469e-05
sg9
F0.0534803942
sg10
F0.00175996614
ssS'A196.png'
p199
(dp200
g3
F0.8416899
sg4
F0.00128243212
sg5
F0.000137635725
sg6
F0.000437266979
sg7
F5.16796936e-05
sg8
F1.80968709e-05
sg9
F0.153308257
sg10
F0.003074717
ssS'B12.png'
p201
(dp202
g3
F8.659891e-09
sg4
F1.0
sg5
F3.533484e-13
sg6
F2.53159174e-15
sg7
F1.041404e-14
sg8
F3.111913e-17
sg9
F2.28095131e-15
sg10
F2.21927858e-11
ssS'A142.png'
p203
(dp204
g3
F0.03167722
sg4
F0.967595339
sg5
F1.66371665e-05
sg6
F3.12726968e-07
sg7
F9.63964837e-08
sg8
F3.301855e-09
sg9
F2.88544129e-07
sg10
F0.000710111053
ssS'A79.png'
p205
(dp206
g3
F0.00228448957
sg4
F2.065598e-06
sg5
F0.00120358658
sg6
F1.93076858e-07
sg7
F3.70404877e-07
sg8
F0.000196085515
sg9
F0.9954375
sg10
F0.0008757072
ssS'B47.png'
p207
(dp208
g3
F0.137026533
sg4
F0.8567394
sg5
F0.00048812764
sg6
F6.499009e-05
sg7
F1.77695038e-05
sg8
F2.57497368e-06
sg9
F5.22820956e-05
sg10
F0.005608339
ssS'B71.png'
p209
(dp210
g3
F0.96918416
sg4
F0.0144920954
sg5
F0.000248590484
sg6
F0.0003453194
sg7
F0.000134712085
sg8
F2.544991e-05
sg9
F0.0114457076
sg10
F0.00412394945
ssS'A85.png'
p211
(dp212
g3
F0.000643246633
sg4
F7.500188e-08
sg5
F0.000281756424
sg6
F3.46807632e-08
sg7
F1.86697378e-07
sg8
F0.000158410185
sg9
F0.9986653
sg10
F0.000251024176
ssS'B75.png'
p213
(dp214
g3
F0.9700283
sg4
F0.00617558463
sg5
F0.000297431048
sg6
F0.00022461552
sg7
F0.000119736687
sg8
F2.80550048e-05
sg9
F0.0205055941
sg10
F0.002620714
ssS'A240.png'
p215
(dp216
g3
F0.000205192177
sg4
F0.9996875
sg5
F5.34691844e-06
sg6
F2.06640816e-10
sg7
F6.53926158e-09
sg8
F9.45984e-11
sg9
F4.730238e-09
sg10
F0.000101945108
ssS'B34.png'
p217
(dp218
g3
F0.00225460622
sg4
F0.9976358
sg5
F1.70531428e-06
sg6
F2.05226556e-08
sg7
F2.0051532e-08
sg8
F4.04625417e-10
sg9
F8.155629e-09
sg10
F0.000107840926
ssS'C74.png'
p219
(dp220
g3
F0.439299464
sg4
F0.216829628
sg5
F0.08128599
sg6
F0.00533751631
sg7
F0.0009332113
sg8
F0.00119692623
sg9
F0.0322428942
sg10
F0.222874358
ssS'B85.png'
p221
(dp222
g3
F0.936984241
sg4
F0.00234225043
sg5
F0.000462629658
sg6
F0.000794488355
sg7
F0.00025208306
sg8
F0.000108700769
sg9
F0.055985298
sg10
F0.003070315
ssS'A190.png'
p223
(dp224
g3
F0.9251979
sg4
F0.00075498654
sg5
F0.000308583141
sg6
F0.000336886
sg7
F5.64871e-05
sg8
F2.72000125e-05
sg9
F0.0717413
sg10
F0.00157667254
ssS'A277.png'
p225
(dp226
g3
F0.466879785
sg4
F0.05569531
sg5
F0.1530272
sg6
F0.0133796018
sg7
F0.000788807636
sg8
F0.00150990509
sg9
F0.06289565
sg10
F0.245823726
ssS'A319.png'
p227
(dp228
g3
F0.979375362
sg4
F0.0101514077
sg5
F6.337394e-05
sg6
F0.0003621728
sg7
F7.125636e-05
sg8
F1.65698057e-05
sg9
F0.00440103142
sg10
F0.005558822
ssS'A150.png'
p229
(dp230
g3
F0.179780528
sg4
F0.8173947
sg5
F0.000158377967
sg6
F1.21094381e-05
sg7
F3.04706441e-06
sg8
F2.753191e-07
sg9
F4.413131e-05
sg10
F0.002606878
ssS'C1.png'
p231
(dp232
g3
F3.91654842e-09
sg4
F1.0
sg5
F2.46532433e-10
sg6
F7.584751e-12
sg7
F4.33414242e-12
sg8
F1.529224e-12
sg9
F6.04404677e-12
sg10
F8.821251e-12
ssS'A233.png'
p233
(dp234
g3
F8.62608249e-06
sg4
F0.9999893
sg5
F5.34146466e-07
sg6
F1.359094e-12
sg7
F3.83137029e-11
sg8
F9.74485e-13
sg9
F3.55520585e-10
sg10
F1.57581792e-06
ssS'B8.png'
p235
(dp236
g3
F4.16920765e-09
sg4
F1.0
sg5
F1.18051109e-14
sg6
F1.10189828e-15
sg7
F3.86618878e-13
sg8
F1.87206881e-16
sg9
F7.53783567e-16
sg10
F4.567057e-12
ssS'B60.png'
p237
(dp238
g3
F0.687691033
sg4
F0.309722543
sg5
F7.639374e-05
sg6
F4.31756e-05
sg7
F3.16011847e-06
sg8
F5.79762968e-07
sg9
F0.000624936656
sg10
F0.00183817872
ssS'A007.png'
p239
(dp240
g3
F1.22638448e-06
sg4
F0.999998569
sg5
F5.588505e-10
sg6
F1.03120393e-13
sg7
F1.8211294e-12
sg8
F1.02869726e-13
sg9
F1.29389746e-14
sg10
F2.161141e-07
ssS'B28.png'
p241
(dp242
g3
F7.054095e-05
sg4
F0.9999289
sg5
F4.517359e-09
sg6
F1.079374e-11
sg7
F2.01518281e-11
sg8
F3.48286158e-14
sg9
F4.12126323e-12
sg10
F5.515189e-07
ssS'A4.png'
p243
(dp244
g3
F4.16817238e-06
sg4
F0.9999943
sg5
F2.56665955e-09
sg6
F7.548217e-14
sg7
F5.183066e-12
sg8
F2.718176e-13
sg9
F7.311606e-13
sg10
F1.53187648e-06
ssS'A002.png'
p245
(dp246
g3
F1.68428357e-06
sg4
F0.9999963
sg5
F9.713794e-10
sg6
F6.42729574e-15
sg7
F1.40345559e-12
sg8
F1.675292e-15
sg9
F1.53798635e-14
sg10
F2.011261e-06
ssS'A364.png'
p247
(dp248
g3
F0.6560557
sg4
F0.285965443
sg5
F0.00149908417
sg6
F6.886422e-05
sg7
F9.24519045e-05
sg8
F0.000158565657
sg9
F0.008065737
sg10
F0.0480941646
ssS'C66.png'
p249
(dp250
g3
F0.177667737
sg4
F0.5061657
sg5
F0.118883677
sg6
F0.00313145365
sg7
F0.00147198059
sg8
F0.007288817
sg9
F0.07431616
sg10
F0.111074485
ssS'A399.png'
p251
(dp252
g3
F0.934314847
sg4
F0.0615414679
sg5
F1.21727462e-05
sg6
F6.486685e-06
sg7
F6.382928e-06
sg8
F6.583685e-06
sg9
F0.00237352983
sg10
F0.0017385066
ssS'A344.png'
p253
(dp254
g3
F0.9759296
sg4
F0.00901659
sg5
F0.0002836648
sg6
F0.000298829
sg7
F0.000623018655
sg8
F0.00012872224
sg9
F0.00676795561
sg10
F0.006951618
ssS'A129.png'
p255
(dp256
g3
F7.24194e-05
sg4
F0.999926567
sg5
F8.969199e-09
sg6
F2.54012662e-11
sg7
F3.646066e-11
sg8
F3.08629634e-14
sg9
F3.65688729e-12
sg10
F1.01317016e-06
ssS'C3.png'
p257
(dp258
g3
F6.22849439e-10
sg4
F1.0
sg5
F1.05608777e-11
sg6
F1.38595624e-13
sg7
F5.169387e-14
sg8
F2.96579989e-15
sg9
F3.6853858e-14
sg10
F2.40228562e-12
ssS'A391.png'
p259
(dp260
g3
F0.9540277
sg4
F0.04398537
sg5
F4.131877e-06
sg6
F2.41108637e-06
sg7
F4.65415923e-07
sg8
F8.08954042e-07
sg9
F0.000341472565
sg10
F0.00163765426
ssS'A005.png'
p261
(dp262
g3
F1.99303281e-06
sg4
F0.9999977
sg5
F4.57407723e-10
sg6
F3.634294e-14
sg7
F6.70760973e-13
sg8
F2.40368e-14
sg9
F1.66360913e-14
sg10
F3.57147115e-07
ssS'A033.png'
p263
(dp264
g3
F0.00227708835
sg4
F0.996856153
sg5
F1.08475451e-05
sg6
F2.68746225e-09
sg7
F2.016438e-07
sg8
F3.88891976e-08
sg9
F1.49554282e-07
sg10
F0.000855517166
ssS'A33.png'
p265
(dp266
g3
F0.007606626
sg4
F0.9903527
sg5
F6.64213148e-05
sg6
F2.20946e-08
sg7
F1.65952667e-06
sg8
F1.29464149e-06
sg9
F8.898547e-06
sg10
F0.00196239026
ssS'A372.png'
p267
(dp268
g3
F0.709645152
sg4
F0.263742745
sg5
F0.000176505782
sg6
F3.43753641e-06
sg7
F7.642784e-07
sg8
F1.55988937e-06
sg9
F0.00178580685
sg10
F0.0246440284
ssS'A256.png'
p269
(dp270
g3
F0.105480537
sg4
F0.7940466
sg5
F0.041082643
sg6
F0.0005874023
sg7
F0.000205465025
sg8
F0.0006507248
sg9
F0.00315940264
sg10
F0.054787226
ssS'A115.png'
p271
(dp272
g3
F1.21298527e-08
sg4
F1.0
sg5
F1.60113876e-14
sg6
F5.754534e-16
sg7
F3.13582385e-13
sg8
F7.89713549e-18
sg9
F1.07604392e-16
sg10
F1.20730067e-11
ssS'A299.png'
p273
(dp274
g3
F0.7441631
sg4
F0.0057064686
sg5
F0.0199193954
sg6
F0.0273687765
sg7
F0.000524613948
sg8
F0.0008743162
sg9
F0.157122284
sg10
F0.0443210378
ssS'A353.png'
p275
(dp276
g3
F0.786791146
sg4
F0.191317737
sg5
F0.0006095139
sg6
F8.332032e-05
sg7
F7.72214262e-05
sg8
F4.424054e-05
sg9
F0.00261668232
sg10
F0.0184601415
ssS'A202.png'
p277
(dp278
g3
F1.16358772e-08
sg4
F1.0
sg5
F2.030081e-09
sg6
F4.86630354e-11
sg7
F4.67732363e-12
sg8
F2.77084215e-12
sg9
F5.79024e-12
sg10
F9.510185e-11
ssS'A229.png'
p279
(dp280
g3
F6.043664e-07
sg4
F0.9999989
sg5
F8.310703e-09
sg6
F5.178263e-14
sg7
F1.10900438e-12
sg8
F6.2784e-15
sg9
F2.75595475e-12
sg10
F4.37277663e-07
ssS'C100.png'
p281
(dp282
g3
F0.717521
sg4
F0.005288166
sg5
F0.02978859
sg6
F0.0129406154
sg7
F0.000254081417
sg8
F0.0006500533
sg9
F0.199817926
sg10
F0.03373954
ssS'A269.png'
p283
(dp284
g3
F0.2771855
sg4
F0.4151279
sg5
F0.07116368
sg6
F0.00565636624
sg7
F0.00072161667
sg8
F0.00120324455
sg9
F0.0155627169
sg10
F0.213378981
ssS'A325.png'
p285
(dp286
g3
F0.9705587
sg4
F0.00332185649
sg5
F0.000206926154
sg6
F0.0005701244
sg7
F2.61207115e-05
sg8
F2.452797e-06
sg9
F0.00193504745
sg10
F0.0233787447
ssS'A294.png'
p287
(dp288
g3
F0.8021972
sg4
F0.00617725262
sg5
F0.021534346
sg6
F0.0173900686
sg7
F0.000304274319
sg8
F0.000271284051
sg9
F0.102738045
sg10
F0.04938752
ssS'A331.png'
p289
(dp290
g3
F0.900948465
sg4
F0.03023617
sg5
F0.000498357054
sg6
F0.00187989767
sg7
F0.0001031819
sg8
F1.694329e-05
sg9
F0.00136953022
sg10
F0.0649474561
ssS'A250.png'
p291
(dp292
g3
F0.0214649513
sg4
F0.968561947
sg5
F0.00171314017
sg6
F2.67380778e-06
sg7
F1.19141669e-05
sg8
F2.40930785e-06
sg9
F1.37404295e-05
sg10
F0.008229231
ssS'B30.png'
p293
(dp294
g3
F5.983625e-05
sg4
F0.9999399
sg5
F2.44455678e-09
sg6
F1.90965421e-11
sg7
F1.92855645e-11
sg8
F8.60383338e-14
sg9
F2.39895569e-11
sg10
F2.6787157e-07
ssS'A113.png'
p295
(dp296
g3
F9.067079e-09
sg4
F1.0
sg5
F3.06326443e-13
sg6
F7.747586e-17
sg7
F7.691937e-15
sg8
F4.955604e-19
sg9
F6.15640156e-17
sg10
F1.29748046e-10
ssS'A121.png'
p297
(dp298
g3
F7.895155e-07
sg4
F0.9999992
sg5
F2.47081956e-11
sg6
F2.74353457e-13
sg7
F1.72892846e-11
sg8
F4.79020552e-15
sg9
F9.640121e-14
sg10
F3.1248657e-09
ssS'B64.png'
p299
(dp300
g3
F0.87905395
sg4
F0.1166275
sg5
F6.311994e-05
sg6
F2.3947985e-05
sg7
F4.97391829e-06
sg8
F1.4428839e-06
sg9
F0.00157497346
sg10
F0.00265007
ssS'B29.png'
p301
(dp302
g3
F7.24194e-05
sg4
F0.999926567
sg5
F8.969199e-09
sg6
F2.54012662e-11
sg7
F3.646066e-11
sg8
F3.08629634e-14
sg9
F3.65688729e-12
sg10
F1.01317016e-06
ssS'A128.png'
p303
(dp304
g3
F7.054095e-05
sg4
F0.9999289
sg5
F4.517359e-09
sg6
F1.079374e-11
sg7
F2.01518281e-11
sg8
F3.48286158e-14
sg9
F4.12126323e-12
sg10
F5.515189e-07
ssS'C25.png'
p305
(dp306
g3
F2.76987578e-07
sg4
F0.9999995
sg5
F8.476563e-09
sg6
F1.5485231e-14
sg7
F8.72995361e-13
sg8
F2.21854632e-14
sg9
F3.5768272e-12
sg10
F1.72708681e-07
ssS'A86.png'
p307
(dp308
g3
F0.00512712449
sg4
F4.862613e-07
sg5
F0.000603070366
sg6
F2.03238869e-07
sg7
F2.67137182e-07
sg8
F0.000102051912
sg9
F0.9937352
sg10
F0.000431574881
ssS'B50.png'
p309
(dp310
g3
F0.179780528
sg4
F0.8173947
sg5
F0.000158377967
sg6
F1.21094381e-05
sg7
F3.04706441e-06
sg8
F2.753191e-07
sg9
F4.413131e-05
sg10
F0.002606878
ssS'A106.png'
p311
(dp312
g3
F2.059503e-09
sg4
F1.0
sg5
F4.88869555e-15
sg6
F1.2795403e-17
sg7
F4.097205e-15
sg8
F7.56691835e-20
sg9
F4.38311137e-18
sg10
F8.724801e-12
ssS'B87.png'
p313
(dp314
g3
F0.9341713
sg4
F0.000798801659
sg5
F0.000258309563
sg6
F0.000221075825
sg7
F4.553603e-05
sg8
F1.694933e-05
sg9
F0.0631728843
sg10
F0.00131515379
ssS'B7.png'
p315
(dp316
g3
F1.22846322e-09
sg4
F1.0
sg5
F9.084669e-16
sg6
F3.234014e-17
sg7
F3.51938429e-14
sg8
F1.00919581e-18
sg9
F1.17427073e-17
sg10
F2.47616077e-12
ssS'A263.png'
p317
(dp318
g3
F0.212298065
sg4
F0.6590636
sg5
F0.0325126238
sg6
F0.0008022202
sg7
F0.00017919713
sg8
F0.000112741771
sg9
F0.00264464063
sg10
F0.09238695
ssS'A286.png'
p319
(dp320
g3
F0.6808912
sg4
F0.0917122662
sg5
F0.0445125
sg6
F0.007484712
sg7
F0.000301327673
sg8
F0.0002786706
sg9
F0.02184484
sg10
F0.152974457
ssS'A95.png'
p321
(dp322
g3
F0.01702398
sg4
F9.984504e-07
sg5
F0.003057872
sg6
F6.162164e-06
sg7
F1.88471422e-05
sg8
F0.003931106
sg9
F0.9742628
sg10
F0.00169828162
ssS'A214.png'
p323
(dp324
g3
F2.998757e-07
sg4
F0.999999642
sg5
F2.88629618e-08
sg6
F2.31122435e-12
sg7
F7.465905e-12
sg8
F9.765009e-13
sg9
F1.438509e-11
sg10
F8.51461e-09
ssS'A231.png'
p325
(dp326
g3
F2.19032859e-06
sg4
F0.9999971
sg5
F1.3646714e-08
sg6
F6.344141e-14
sg7
F3.13914346e-12
sg8
F6.67306828e-15
sg9
F3.61490867e-13
sg10
F7.42919838e-07
ssS'A126.png'
p327
(dp328
g3
F2.74939543e-06
sg4
F0.999997258
sg5
F7.12133963e-11
sg6
F1.75590879e-13
sg7
F1.29045158e-12
sg8
F1.44593532e-15
sg9
F7.718877e-13
sg10
F9.249801e-09
ssS'A24.png'
p329
(dp330
g3
F9.780664e-05
sg4
F0.9998656
sg5
F6.325252e-08
sg6
F2.15646025e-11
sg7
F7.403151e-09
sg8
F2.52747573e-10
sg9
F8.105585e-11
sg10
F3.65085143e-05
ssS'A064.png'
p331
(dp332
g3
F0.000867602357
sg4
F1.18843836e-05
sg5
F0.000284629321
sg6
F9.564814e-09
sg7
F3.114507e-08
sg8
F7.637569e-05
sg9
F0.9986114
sg10
F0.0001480549
ssS'A5.png'
p333
(dp334
g3
F1.50579342e-06
sg4
F0.9999984
sg5
F1.73321357e-10
sg6
F3.493123e-14
sg7
F1.16805285e-12
sg8
F5.29673038e-15
sg9
F1.140458e-15
sg10
F1.2904907e-07
ssS'A212.png'
p335
(dp336
g3
F1.19235883e-08
sg4
F1.0
sg5
F6.434769e-10
sg6
F1.08278607e-13
sg7
F3.25554552e-13
sg8
F4.96535923e-15
sg9
F8.606784e-13
sg10
F3.467618e-10
ssS'A31.png'
p337
(dp338
g3
F0.00224956218
sg4
F0.99686116
sg5
F1.00307634e-05
sg6
F3.458965e-09
sg7
F2.11460247e-07
sg8
F3.21742775e-08
sg9
F6.892609e-08
sg10
F0.000878950639
ssS'C93.png'
p339
(dp340
g3
F0.91398716
sg4
F0.00742824655
sg5
F0.0157583561
sg6
F0.008251754
sg7
F0.000151598375
sg8
F4.932307e-05
sg9
F0.011639691
sg10
F0.0427338481
ssS'B40.png'
p341
(dp342
g3
F0.0157783814
sg4
F0.983695
sg5
F7.574597e-06
sg6
F2.837294e-07
sg7
F1.18022712e-07
sg8
F4.18587653e-09
sg9
F1.46634747e-07
sg10
F0.0005185194
ssS'C32.png'
p343
(dp344
g3
F4.168235e-06
sg4
F0.999994159
sg5
F1.02628924e-07
sg6
F7.18674862e-14
sg7
F2.090916e-11
sg8
F2.21645331e-14
sg9
F5.485529e-12
sg10
F1.59851777e-06
ssS'A063.png'
p345
(dp346
g3
F0.000528772071
sg4
F3.13289161e-06
sg5
F0.0005330901
sg6
F1.1300135e-08
sg7
F8.268527e-08
sg8
F0.000267539668
sg9
F0.9984556
sg10
F0.000211789084
ssS'A032.png'
p347
(dp348
g3
F0.0010748083
sg4
F0.998519361
sg5
F4.64621871e-06
sg6
F6.863693e-10
sg7
F1.40972659e-07
sg8
F4.555427e-08
sg9
F1.16059631e-07
sg10
F0.000400905526
ssS'A013.png'
p349
(dp350
g3
F1.43876459e-05
sg4
F0.9999835
sg5
F6.81281531e-10
sg6
F5.768643e-14
sg7
F2.07569083e-11
sg8
F3.979303e-14
sg9
F3.523934e-14
sg10
F2.10445432e-06
ssS'A373.png'
p351
(dp352
g3
F0.951678753
sg4
F0.0354971066
sg5
F0.000135283262
sg6
F1.02507784e-05
sg7
F5.43557735e-06
sg8
F1.26935629e-05
sg9
F0.00498747872
sg10
F0.00767298136
ssS'A308.png'
p353
(dp354
g3
F0.985363
sg4
F0.00272524846
sg5
F4.852543e-05
sg6
F0.0004709802
sg7
F0.000460277952
sg8
F6.335975e-05
sg9
F0.00698216725
sg10
F0.00388644286
ssS'A389.png'
p355
(dp356
g3
F0.905706048
sg4
F0.09281445
sg5
F8.375539e-07
sg6
F2.17837353e-07
sg7
F8.328096e-08
sg8
F6.621399e-08
sg9
F0.000295578822
sg10
F0.00118273823
ssS'A061.png'
p357
(dp358
g3
F0.0275079366
sg4
F0.00166416832
sg5
F0.00100919965
sg6
F1.04643186e-06
sg7
F8.622227e-06
sg8
F0.003713334
sg9
F0.964629054
sg10
F0.00146662467
ssS'A070.png'
p359
(dp360
g3
F0.0003940466
sg4
F7.72243652e-07
sg5
F6.489643e-05
sg6
F8.071234e-10
sg7
F1.80956636e-08
sg8
F9.164195e-05
sg9
F0.9994197
sg10
F2.892908e-05
ssS'A357.png'
p361
(dp362
g3
F0.873748243
sg4
F0.120040692
sg5
F7.121918e-05
sg6
F1.98327216e-05
sg7
F2.10010548e-05
sg8
F8.411573e-05
sg9
F0.00271453965
sg10
F0.0033003306
ssS'A237.png'
p363
(dp364
g3
F0.000134193047
sg4
F0.9997997
sg5
F1.33158328e-05
sg6
F2.251766e-10
sg7
F2.40711873e-09
sg8
F1.72660747e-10
sg9
F1.54825983e-08
sg10
F5.27509947e-05
ssS'A183.png'
p365
(dp366
g3
F0.9029839
sg4
F0.00377450651
sg5
F0.00100461079
sg6
F0.00064346
sg7
F0.000100899633
sg8
F7.088189e-05
sg9
F0.08759264
sg10
F0.00382908643
ssS'A030.png'
p367
(dp368
g3
F0.00122108718
sg4
F0.9984618
sg5
F7.795848e-06
sg6
F2.39971043e-09
sg7
F1.85591844e-07
sg8
F9.26644645e-08
sg9
F4.224804e-08
sg10
F0.00030900666
ssS'A20.png'
p369
(dp370
g3
F3.52287461e-05
sg4
F0.999956667
sg5
F3.099235e-08
sg6
F6.22268469e-12
sg7
F4.188616e-10
sg8
F7.595313e-11
sg9
F2.27005029e-11
sg10
F8.058616e-06
ssS'C42.png'
p371
(dp372
g3
F0.0004704132
sg4
F0.9994322
sg5
F6.505522e-06
sg6
F3.39987538e-10
sg7
F2.287487e-08
sg8
F1.05487279e-10
sg9
F1.46878754e-09
sg10
F9.083164e-05
ssS'B39.png'
p373
(dp374
g3
F0.016091235
sg4
F0.983660936
sg5
F8.52632547e-06
sg6
F2.50701817e-07
sg7
F1.68029686e-07
sg8
F3.72714437e-09
sg9
F8.819248e-08
sg10
F0.000238779539
ssS'C26.png'
p375
(dp376
g3
F9.476684e-07
sg4
F0.999997735
sg5
F1.22436347e-07
sg6
F2.57949061e-14
sg7
F2.7703497e-12
sg8
F1.67357075e-14
sg9
F1.75078129e-11
sg10
F1.19409617e-06
ssS'A105.png'
p377
(dp378
g3
F1.51542268e-09
sg4
F1.0
sg5
F7.117896e-15
sg6
F5.36150362e-16
sg7
F4.53180733e-13
sg8
F4.40414748e-17
sg9
F1.04372154e-16
sg10
F1.77380907e-12
ssS'B79.png'
p379
(dp380
g3
F0.962537766
sg4
F0.004810112
sg5
F0.0005472851
sg6
F0.000417795585
sg7
F0.000175773326
sg8
F4.73521723e-05
sg9
F0.0274825338
sg10
F0.00398138445
ssS'A50.png'
p381
(dp382
g3
F0.0438011028
sg4
F0.231384113
sg5
F0.0034577942
sg6
F4.73866658e-06
sg7
F5.98148181e-05
sg8
F0.0134921847
sg9
F0.702715039
sg10
F0.00508524152
ssS'A362.png'
p383
(dp384
g3
F0.8512486
sg4
F0.130147412
sg5
F0.000136358765
sg6
F1.35536466e-05
sg7
F5.56205532e-06
sg8
F7.467438e-06
sg9
F0.00157831539
sg10
F0.01686273
ssS'A53.png'
p385
(dp386
g3
F0.06970391
sg4
F0.123727933
sg5
F0.00221966
sg6
F4.49554454e-06
sg7
F0.000101327263
sg8
F0.0289320648
sg9
F0.7705427
sg10
F0.004767933
ssS'A51.png'
p387
(dp388
g3
F0.08911804
sg4
F0.33061862
sg5
F0.006434085
sg6
F2.85253573e-05
sg7
F9.026811e-05
sg8
F0.0272255149
sg9
F0.53564173
sg10
F0.010843223
ssS'A134.png'
p389
(dp390
g3
F0.00225460622
sg4
F0.9976358
sg5
F1.70531428e-06
sg6
F2.05226556e-08
sg7
F2.0051532e-08
sg8
F4.04625417e-10
sg9
F8.155629e-09
sg10
F0.000107840926
ssS'A355.png'
p391
(dp392
g3
F0.9468003
sg4
F0.04717335
sg5
F4.68650433e-05
sg6
F2.257983e-05
sg7
F0.000127169536
sg8
F6.619691e-05
sg9
F0.000879010069
sg10
F0.00488456059
ssS'A315.png'
p393
(dp394
g3
F0.9572853
sg4
F0.0007160172
sg5
F0.0003411797
sg6
F0.004261134
sg7
F0.000286378054
sg8
F0.000131489083
sg9
F0.0301959049
sg10
F0.006782623
ssS'A91.png'
p395
(dp396
g3
F0.0005675248
sg4
F1.23260167e-08
sg5
F0.000229505531
sg6
F1.26550033e-08
sg7
F3.60001771e-08
sg8
F4.283377e-05
sg9
F0.9990562
sg10
F0.00010384716
ssS'A170.png'
p397
(dp398
g3
F0.9697218
sg4
F0.0208571274
sg5
F0.0001544995
sg6
F0.000198298439
sg7
F5.130779e-05
sg8
F8.727262e-06
sg9
F0.00528884865
sg10
F0.00371941016
ssS'A400.png'
p399
(dp400
g3
F0.8282183
sg4
F0.166180983
sg5
F1.94761251e-05
sg6
F1.25178021e-05
sg7
F8.431048e-05
sg8
F3.38194768e-05
sg9
F0.00353170256
sg10
F0.00191892323
ssS'B88.png'
p401
(dp402
g3
F0.9055413
sg4
F0.002193687
sg5
F0.000350115
sg6
F0.0002229477
sg7
F9.05456545e-05
sg8
F5.10061582e-05
sg9
F0.08947068
sg10
F0.002079704
ssS'B13.png'
p403
(dp404
g3
F9.067079e-09
sg4
F1.0
sg5
F3.06326443e-13
sg6
F7.747586e-17
sg7
F7.691937e-15
sg8
F4.955604e-19
sg9
F6.15640156e-17
sg10
F1.29748046e-10
ssS'C84.png'
p405
(dp406
g3
F0.631538868
sg4
F0.02648085
sg5
F0.08925465
sg6
F0.00960607
sg7
F0.000366875058
sg8
F0.000543136732
sg9
F0.0517880321
sg10
F0.190421522
ssS'B37.png'
p407
(dp408
g3
F0.007871319
sg4
F0.991934538
sg5
F3.30220632e-06
sg6
F8.75103936e-08
sg7
F3.75317981e-08
sg8
F8.42085734e-10
sg9
F2.53820147e-08
sg10
F0.0001907094
ssS'A243.png'
p409
(dp410
g3
F0.000741535
sg4
F0.9986208
sg5
F0.000131186622
sg6
F4.365355e-09
sg7
F4.83488662e-08
sg8
F7.711165e-09
sg9
F2.774114e-07
sg10
F0.0005061152
ssS'A360.png'
p411
(dp412
g3
F0.7061833
sg4
F0.284029126
sg5
F0.000101877915
sg6
F1.89930743e-05
sg7
F5.25511969e-05
sg8
F4.17172523e-05
sg9
F0.00178437552
sg10
F0.00778806629
ssS'A374.png'
p413
(dp414
g3
F0.9715197
sg4
F0.0177721772
sg5
F0.000141535886
sg6
F1.55961352e-05
sg7
F4.877307e-06
sg8
F1.40357788e-05
sg9
F0.005354578
sg10
F0.005177506
ssS'B49.png'
p415
(dp416
g3
F0.178888664
sg4
F0.818230152
sg5
F0.000178370858
sg6
F1.47535075e-05
sg7
F3.43198644e-06
sg8
F3.60151517e-07
sg9
F5.78212348e-05
sg10
F0.00262647541
ssS'B15.png'
p417
(dp418
g3
F1.21298527e-08
sg4
F1.0
sg5
F1.60113876e-14
sg6
F5.754534e-16
sg7
F3.13582385e-13
sg8
F7.89713549e-18
sg9
F1.07604392e-16
sg10
F1.20730067e-11
ssS'B22.png'
p419
(dp420
g3
F2.36864949e-07
sg4
F0.999999762
sg5
F1.17215656e-12
sg6
F1.62401542e-14
sg7
F3.65829936e-12
sg8
F1.17754626e-15
sg9
F6.578536e-14
sg10
F1.940673e-10
ssS'A267.png'
p421
(dp422
g3
F0.225707307
sg4
F0.487031251
sg5
F0.10739214
sg6
F0.002635197
sg7
F0.00115790486
sg8
F0.00399988936
sg9
F0.0495259278
sg10
F0.122550383
ssS'A321.png'
p423
(dp424
g3
F0.9810711
sg4
F0.00855636
sg5
F0.000110396126
sg6
F0.0003787139
sg7
F4.72578868e-05
sg8
F1.67451981e-05
sg9
F0.002694356
sg10
F0.00712505262
ssS'A283.png'
p425
(dp426
g3
F0.518347859
sg4
F0.0483404957
sg5
F0.130651221
sg6
F0.0122461691
sg7
F0.0009690275
sg8
F0.00115996762
sg9
F0.0542015545
sg10
F0.234083727
ssS'A394.png'
p427
(dp428
g3
F0.8957957
sg4
F0.100286044
sg5
F8.600822e-06
sg6
F1.47271874e-06
sg7
F5.103364e-07
sg8
F5.46498e-07
sg9
F0.000451653585
sg10
F0.00345545472
ssS'C91.png'
p429
(dp430
g3
F0.8605874
sg4
F0.00905018
sg5
F0.0271287858
sg6
F0.0100831864
sg7
F0.000126391184
sg8
F0.000119806587
sg9
F0.0552545972
sg10
F0.03764965
ssS'C13.png'
p431
(dp432
g3
F3.50963454e-08
sg4
F0.99999994
sg5
F1.00942754e-09
sg6
F1.09060012e-13
sg7
F1.02067432e-12
sg8
F3.95326844e-14
sg9
F1.28472309e-12
sg10
F5.94213734e-10
ssS'C50.png'
p433
(dp434
g3
F0.0214649513
sg4
F0.968561947
sg5
F0.00171314017
sg6
F2.67380778e-06
sg7
F1.19141669e-05
sg8
F2.40930785e-06
sg9
F1.37404295e-05
sg10
F0.008229231
ssS'A111.png'
p435
(dp436
g3
F1.22964536e-08
sg4
F1.0
sg5
F1.78420484e-13
sg6
F2.57457972e-15
sg7
F2.95975619e-13
sg8
F2.12397972e-16
sg9
F1.56282492e-15
sg10
F6.815966e-11
ssS'A018.png'
p437
(dp438
g3
F2.764644e-05
sg4
F0.9999657
sg5
F3.058007e-08
sg6
F5.389855e-12
sg7
F1.02033726e-09
sg8
F6.78644155e-11
sg9
F1.71940621e-11
sg10
F6.62399225e-06
ssS'A155.png'
p439
(dp440
g3
F0.412292659
sg4
F0.5768637
sg5
F0.00174900307
sg6
F0.0004525789
sg7
F0.000131952882
sg8
F3.391889e-05
sg9
F0.0009820659
sg10
F0.0074941027
ssS'A088.png'
p441
(dp442
g3
F0.00343720615
sg4
F5.452047e-07
sg5
F3.9507966e-05
sg6
F1.69320273e-08
sg7
F2.44873561e-08
sg8
F1.67398975e-05
sg9
F0.9963953
sg10
F0.000110684545
ssS'A265.png'
p443
(dp444
g3
F0.189383537
sg4
F0.3470742
sg5
F0.154270872
sg6
F0.00322260079
sg7
F0.002058974
sg8
F0.011277982
sg9
F0.127845466
sg10
F0.164866373
ssS'A285.png'
p445
(dp446
g3
F0.6533615
sg4
F0.0203342121
sg5
F0.05543878
sg6
F0.0117933126
sg7
F0.000163291843
sg8
F0.000205713543
sg9
F0.0362476148
sg10
F0.222455591
ssS'A163.png'
p447
(dp448
g3
F0.723873258
sg4
F0.272624344
sg5
F9.658645e-05
sg6
F2.403484e-05
sg7
F1.87015348e-06
sg8
F6.391534e-07
sg9
F0.0010692497
sg10
F0.00230998243
ssS'A324.png'
p449
(dp450
g3
F0.9883029
sg4
F0.00228253077
sg5
F6.374874e-05
sg6
F0.00018263841
sg7
F7.178422e-05
sg8
F5.791226e-06
sg9
F0.00112057489
sg10
F0.007970037
ssS'A301.png'
p451
(dp452
g3
F0.989622951
sg4
F0.00271903235
sg5
F3.05490562e-06
sg6
F0.000115440838
sg7
F1.28375159e-05
sg8
F4.336616e-06
sg9
F0.00639999937
sg10
F0.001122322
ssS'A047.png'
p453
(dp454
g3
F0.053009
sg4
F0.5210325
sg5
F0.00156420993
sg6
F1.07564347e-06
sg7
F5.10063837e-05
sg8
F0.00851159
sg9
F0.409403682
sg10
F0.00642690761
ssS'A30.png'
p455
(dp456
g3
F0.00169363129
sg4
F0.9979364
sg5
F7.761103e-06
sg6
F5.808843e-09
sg7
F4.63363932e-07
sg8
F3.18177257e-07
sg9
F1.01523852e-07
sg10
F0.0003612847
ssS'A80.png'
p457
(dp458
g3
F0.00480301026
sg4
F2.347351e-06
sg5
F7.714044e-05
sg6
F1.324744e-08
sg7
F5.05852249e-08
sg8
F3.25471447e-05
sg9
F0.995034158
sg10
F5.07045e-05
ssS'C56.png'
p459
(dp460
g3
F0.105480537
sg4
F0.7940466
sg5
F0.041082643
sg6
F0.0005874023
sg7
F0.000205465025
sg8
F0.0006507248
sg9
F0.00315940264
sg10
F0.054787226
ssS'A012.png'
p461
(dp462
g3
F2.93813514e-06
sg4
F0.9999964
sg5
F1.42284273e-09
sg6
F2.31777569e-13
sg7
F2.30699869e-11
sg8
F7.592971e-13
sg9
F4.713052e-14
sg10
F6.35069739e-07
ssS'A11.png'
p463
(dp464
g3
F4.33229934e-06
sg4
F0.999995053
sg5
F1.5361229e-10
sg6
F1.06429885e-14
sg7
F1.848553e-12
sg8
F1.36486756e-14
sg9
F2.7640164e-14
sg10
F6.28842031e-07
ssS'A098.png'
p465
(dp466
g3
F0.0010754877
sg4
F3.169936e-09
sg5
F5.0965853e-05
sg6
F2.33902444e-08
sg7
F4.34116245e-08
sg8
F3.477519e-05
sg9
F0.9987314
sg10
F0.000107319211
ssS'A117.png'
p467
(dp468
g3
F1.3230526e-07
sg4
F0.9999999
sg5
F4.16942349e-12
sg6
F2.54652684e-15
sg7
F2.853554e-14
sg8
F1.00057884e-17
sg9
F4.83098423e-15
sg10
F1.400345e-09
ssS'C10.png'
p469
(dp470
g3
F3.77583156e-08
sg4
F0.99999994
sg5
F4.266075e-09
sg6
F1.17919346e-12
sg7
F4.18740346e-12
sg8
F6.637599e-14
sg9
F6.242498e-12
sg10
F4.723788e-10
ssS'A55.png'
p471
(dp472
g3
F0.123755574
sg4
F0.08633947
sg5
F0.001377031
sg6
F6.409208e-06
sg7
F0.000157987553
sg8
F0.0225542281
sg9
F0.7608471
sg10
F0.004962195
ssS'A326.png'
p473
(dp474
g3
F0.9928367
sg4
F0.0026847485
sg5
F1.452104e-05
sg6
F3.05007088e-05
sg7
F2.19744525e-05
sg8
F2.21384676e-06
sg9
F0.0003467866
sg10
F0.004062538
ssS'A22.png'
p475
(dp476
g3
F0.00025657998
sg4
F0.9996568
sg5
F4.895303e-07
sg6
F6.833904e-11
sg7
F2.1889548e-08
sg8
F3.91436578e-10
sg9
F2.40303055e-10
sg10
F8.61306e-05
ssS'A248.png'
p477
(dp478
g3
F0.007788701
sg4
F0.988415956
sg5
F0.00134872377
sg6
F6.18922456e-07
sg7
F1.16592867e-06
sg8
F6.219899e-07
sg9
F3.23595214e-06
sg10
F0.00244095665
ssS'C80.png'
p479
(dp480
g3
F0.5759156
sg4
F0.09912488
sg5
F0.0606323779
sg6
F0.00392049458
sg7
F0.000691127963
sg8
F0.0005144959
sg9
F0.0226951577
sg10
F0.2365059
ssS'C69.png'
p481
(dp482
g3
F0.2771855
sg4
F0.4151279
sg5
F0.07116368
sg6
F0.00565636624
sg7
F0.00072161667
sg8
F0.00120324455
sg9
F0.0155627169
sg10
F0.213378981
ssS'A36.png'
p483
(dp484
g3
F0.00323843281
sg4
F0.9959648
sg5
F9.506893e-06
sg6
F5.24715338e-09
sg7
F4.74299952e-07
sg8
F1.20684126e-06
sg9
F2.45261526e-06
sg10
F0.0007830896
ssS'A77.png'
p485
(dp486
g3
F0.0128938723
sg4
F1.8944369e-05
sg5
F0.000440294447
sg6
F2.88795775e-07
sg7
F6.1653077e-07
sg8
F0.0002099609
sg9
F0.986034155
sg10
F0.00040184884
ssS'A182.png'
p487
(dp488
g3
F0.95719254
sg4
F0.00313183526
sg5
F0.000532188336
sg6
F0.0004485828
sg7
F0.0001179131
sg8
F3.851264e-05
sg9
F0.0359727
sg10
F0.00256569823
ssS'A024.png'
p489
(dp490
g3
F0.000164026351
sg4
F0.9997914
sg5
F4.177015e-08
sg6
F1.31703919e-11
sg7
F3.93814137e-09
sg8
F4.541855e-11
sg9
F8.922831e-11
sg10
F4.45616279e-05
ssS'A092.png'
p491
(dp492
g3
F0.00330246054
sg4
F2.692471e-07
sg5
F0.0004072489
sg6
F7.41557e-07
sg7
F3.85571269e-07
sg8
F0.0002333799
sg9
F0.995464742
sg10
F0.000590781
ssS'A172.png'
p493
(dp494
g3
F0.960000634
sg4
F0.0107165687
sg5
F0.0004605283
sg6
F0.00026063883
sg7
F0.000211538878
sg8
F6.443799e-05
sg9
F0.0232443046
sg10
F0.00504132174
ssS'A384.png'
p495
(dp496
g3
F0.9440562
sg4
F0.0531806238
sg5
F7.19100171e-06
sg6
F8.38520464e-07
sg7
F1.2119965e-06
sg8
F1.40513907e-06
sg9
F0.0006234991
sg10
F0.0021290353
ssS'A369.png'
p497
(dp498
g3
F0.9044806
sg4
F0.0308947135
sg5
F0.0009696097
sg6
F0.000353202719
sg7
F0.000102700644
sg8
F0.0004871906
sg9
F0.0206524134
sg10
F0.0420595855
ssS'A381.png'
p499
(dp500
g3
F0.994834363
sg4
F0.00313624484
sg5
F4.613057e-06
sg6
F1.407633e-06
sg7
F6.972805e-08
sg8
F3.64816884e-07
sg9
F0.00112635188
sg10
F0.00089660607
ssS'A68.png'
p501
(dp502
g3
F0.00197844487
sg4
F1.28283082e-05
sg5
F0.00023884853
sg6
F1.4036118e-08
sg7
F2.07207961e-07
sg8
F0.0003293976
sg9
F0.9972883
sg10
F0.0001519897
ssS'A38.png'
p503
(dp504
g3
F0.008390288
sg4
F0.985735834
sg5
F0.000391142676
sg6
F2.99329986e-06
sg7
F2.87289663e-06
sg8
F0.000111947389
sg9
F6.906989e-05
sg10
F0.00529585825
ssS'B81.png'
p505
(dp506
g3
F0.945277631
sg4
F0.00342408125
sg5
F0.000564582646
sg6
F0.000486214471
sg7
F0.000127460371
sg8
F6.0557446e-05
sg9
F0.04581265
sg10
F0.00424681371
ssS'A336.png'
p507
(dp508
g3
F0.979555547
sg4
F0.006415198
sg5
F4.60043666e-05
sg6
F0.000579215353
sg7
F0.000211954568
sg8
F2.12170035e-05
sg9
F0.00060979405
sg10
F0.0125610912
ssS'A191.png'
p509
(dp510
g3
F0.8900673
sg4
F0.00116075075
sg5
F0.000325347384
sg6
F0.000457942573
sg7
F0.000102688391
sg8
F6.394141e-05
sg9
F0.106269829
sg10
F0.00155222253
ssS'A180.png'
p511
(dp512
g3
F0.9485674
sg4
F0.00374373444
sg5
F0.00055912364
sg6
F0.000371120637
sg7
F9.09504961e-05
sg8
F3.500667e-05
sg9
F0.0441257544
sg10
F0.0025069227
ssS'A305.png'
p513
(dp514
g3
F0.968411744
sg4
F0.00407895632
sg5
F0.000130907676
sg6
F0.00156435673
sg7
F0.000554017141
sg8
F0.000104896164
sg9
F0.0205056947
sg10
F0.0046494375
ssS'A094.png'
p515
(dp516
g3
F0.00125212013
sg4
F2.60562221e-08
sg5
F0.000376406679
sg6
F1.67035253e-07
sg7
F4.15845676e-07
sg8
F0.0002311745
sg9
F0.997367144
sg10
F0.0007725603
ssS'A386.png'
p517
(dp518
g3
F0.7276038
sg4
F0.266902179
sg5
F2.83620448e-05
sg6
F1.41397129e-06
sg7
F4.82348355e-07
sg8
F1.45303216e-06
sg9
F0.00105963543
sg10
F0.0044026766
ssS'A396.png'
p519
(dp520
g3
F0.608605444
sg4
F0.387859046
sg5
F5.462659e-06
sg6
F3.04740615e-06
sg7
F1.50068408e-05
sg8
F4.816414e-06
sg9
F0.000450389925
sg10
F0.003056789
ssS'C88.png'
p521
(dp522
g3
F0.7899401
sg4
F0.00751473568
sg5
F0.03977612
sg6
F0.00957583
sg7
F0.000102567916
sg8
F0.000100378806
sg9
F0.0517099
sg10
F0.101280347
ssS'C99.png'
p523
(dp524
g3
F0.7441631
sg4
F0.0057064686
sg5
F0.0199193954
sg6
F0.0273687765
sg7
F0.000524613948
sg8
F0.0008743162
sg9
F0.157122284
sg10
F0.0443210378
ssS'C90.png'
p525
(dp526
g3
F0.6959473
sg4
F0.0221155751
sg5
F0.07618978
sg6
F0.00879915
sg7
F0.000347321125
sg8
F0.0004929024
sg9
F0.07212437
sg10
F0.123983629
ssS'C20.png'
p527
(dp528
g3
F6.625501e-08
sg4
F0.9999999
sg5
F2.80125234e-09
sg6
F4.53635373e-14
sg7
F5.34327845e-13
sg8
F3.011529e-14
sg9
F5.450019e-12
sg10
F2.61674913e-08
ssS'B77.png'
p529
(dp530
g3
F0.980876565
sg4
F0.00471608248
sg5
F0.0003227246
sg6
F0.000305698748
sg7
F0.000182374366
sg8
F3.5307643e-05
sg9
F0.0111789731
sg10
F0.00238228915
ssS'A168.png'
p531
(dp532
g3
F0.9422161
sg4
F0.04472637
sg5
F0.000326578534
sg6
F0.000246449054
sg7
F0.0001865344
sg8
F5.175271e-05
sg9
F0.009047379
sg10
F0.00319886021
ssS'A008.png'
p533
(dp534
g3
F5.9277653e-07
sg4
F0.999999166
sg5
F1.366538e-10
sg6
F2.12327545e-14
sg7
F5.924356e-13
sg8
F6.09643451e-15
sg9
F4.01351231e-15
sg10
F2.14571529e-07
ssS'A103.png'
p535
(dp536
g3
F7.858731e-10
sg4
F1.0
sg5
F4.985573e-15
sg6
F8.075511e-16
sg7
F2.47919361e-13
sg8
F3.17994267e-17
sg9
F1.58692642e-16
sg10
F5.47755e-13
ssS'A73.png'
p537
(dp538
g3
F0.000805709045
sg4
F1.69385976e-06
sg5
F0.000440044445
sg6
F6.756877e-09
sg7
F8.5246036e-08
sg8
F0.000155913134
sg9
F0.998449564
sg10
F0.00014696439
ssS'C30.png'
p539
(dp540
g3
F5.26767644e-06
sg4
F0.9999942
sg5
F9.60581659e-08
sg6
F3.734689e-12
sg7
F5.721747e-11
sg8
F3.41053954e-13
sg9
F2.526085e-10
sg10
F4.16968078e-07
ssS'A328.png'
p541
(dp542
g3
F0.9817275
sg4
F0.0101723727
sg5
F2.94960628e-05
sg6
F0.000320938736
sg7
F2.92423065e-05
sg8
F5.04271748e-06
sg9
F0.00048267
sg10
F0.007232759
ssS'A119.png'
p543
(dp544
g3
F4.739153e-07
sg4
F0.9999995
sg5
F1.10242137e-11
sg6
F1.60970033e-13
sg7
F1.07870934e-11
sg8
F2.53355178e-15
sg9
F4.53912149e-14
sg10
F1.66081382e-09
ssS'A151.png'
p545
(dp546
g3
F0.211332425
sg4
F0.7767938
sg5
F0.00174201909
sg6
F0.000315150683
sg7
F0.000165597972
sg8
F3.445759e-05
sg9
F0.000248322816
sg10
F0.009368223
ssS'A174.png'
p547
(dp548
g3
F0.9727139
sg4
F0.0133962622
sg5
F0.0001628346
sg6
F0.000275987957
sg7
F0.0001418095
sg8
F2.36350061e-05
sg9
F0.0113584008
sg10
F0.00192716671
ssS'A235.png'
p549
(dp550
g3
F1.8018929e-05
sg4
F0.9999731
sg5
F1.30722526e-06
sg6
F1.39588406e-12
sg7
F1.57809918e-10
sg8
F1.04628274e-12
sg9
F4.19605767e-10
sg10
F7.55508745e-06
ssS'C48.png'
p551
(dp552
g3
F0.007788701
sg4
F0.988415956
sg5
F0.00134872377
sg6
F6.18922456e-07
sg7
F1.16592867e-06
sg8
F6.219899e-07
sg9
F3.23595214e-06
sg10
F0.00244095665
ssS'A35.png'
p553
(dp554
g3
F0.00280430634
sg4
F0.9961349
sg5
F2.96382241e-05
sg6
F1.99377173e-08
sg7
F3.69895957e-07
sg8
F1.24494284e-06
sg9
F1.7545126e-06
sg10
F0.00102778932
ssS'C82.png'
p555
(dp556
g3
F0.559812
sg4
F0.0634868443
sg5
F0.08067087
sg6
F0.008268586
sg7
F0.000665397267
sg8
F0.00105560187
sg9
F0.0566719659
sg10
F0.229368731
ssS'C92.png'
p557
(dp558
g3
F0.7554504
sg4
F0.008233743
sg5
F0.0290731322
sg6
F0.0144769456
sg7
F0.000238494467
sg8
F0.000365035929
sg9
F0.124289475
sg10
F0.0678727552
ssS'C96.png'
p559
(dp560
g3
F0.749309957
sg4
F0.003502753
sg5
F0.0319732837
sg6
F0.0125947623
sg7
F0.000356335484
sg8
F0.00039806345
sg9
F0.127791822
sg10
F0.07407303
ssS'B35.png'
p561
(dp562
g3
F0.004010812
sg4
F0.9957852
sg5
F2.90073513e-06
sg6
F3.48785e-08
sg7
F3.057444e-08
sg8
F9.251437e-10
sg9
F2.28238477e-08
sg10
F0.000201033283
ssS'A245.png'
p563
(dp564
g3
F0.00150900241
sg4
F0.997400761
sg5
F0.0005561081
sg6
F5.11012743e-08
sg7
F3.04926857e-07
sg8
F6.30285456e-07
sg9
F2.556953e-05
sg10
F0.0005075876
ssS'A153.png'
p565
(dp566
g3
F0.35008502
sg4
F0.6449749
sg5
F0.000346704153
sg6
F5.27372358e-05
sg7
F1.746199e-05
sg8
F5.114118e-06
sg9
F0.000280801178
sg10
F0.004237261
ssS'A210.png'
p567
(dp568
g3
F3.77583156e-08
sg4
F0.99999994
sg5
F4.266075e-09
sg6
F1.17919346e-12
sg7
F4.18740346e-12
sg8
F6.637599e-14
sg9
F6.242498e-12
sg10
F4.723788e-10
ssS'C12.png'
p569
(dp570
g3
F1.19235883e-08
sg4
F1.0
sg5
F6.434769e-10
sg6
F1.08278607e-13
sg7
F3.25554552e-13
sg8
F4.96535923e-15
sg9
F8.606784e-13
sg10
F3.467618e-10
ssS'A001.png'
p571
(dp572
g3
F3.69326472e-07
sg4
F0.9999996
sg5
F6.38040246e-11
sg6
F9.923013e-15
sg7
F4.60788e-13
sg8
F9.729748e-15
sg9
F2.04710478e-15
sg10
F3.053343e-08
ssS'C41.png'
p573
(dp574
g3
F0.00109520752
sg4
F0.998800159
sg5
F2.43228842e-05
sg6
F3.42090933e-09
sg7
F6.082959e-08
sg8
F2.35916819e-09
sg9
F1.72335373e-08
sg10
F8.023686e-05
ssS'C98.png'
p575
(dp576
g3
F0.797533154
sg4
F0.00453146175
sg5
F0.0263532158
sg6
F0.0129480427
sg7
F0.000275161641
sg8
F0.0003515882
sg9
F0.114672892
sg10
F0.04333448
ssS'A88.png'
p577
(dp578
g3
F0.0051568537
sg4
F2.65820518e-06
sg5
F0.000194188047
sg6
F1.96667244e-07
sg7
F3.1687722e-07
sg8
F0.00012207267
sg9
F0.9941964
sg10
F0.000327311456
ssS'C86.png'
p579
(dp580
g3
F0.6808912
sg4
F0.0917122662
sg5
F0.0445125
sg6
F0.007484712
sg7
F0.000301327673
sg8
F0.0002786706
sg9
F0.02184484
sg10
F0.152974457
ssS'A247.png'
p581
(dp582
g3
F0.007850741
sg4
F0.989998341
sg5
F0.000683151535
sg6
F3.372931e-07
sg7
F1.91983872e-06
sg8
F2.53922281e-07
sg9
F1.19447668e-06
sg10
F0.00146408915
ssS'A218.png'
p583
(dp584
g3
F3.205815e-08
sg4
F0.99999994
sg5
F5.434372e-10
sg6
F2.633545e-14
sg7
F7.6137653e-13
sg8
F1.00562386e-14
sg9
F3.261823e-13
sg10
F1.41674927e-09
ssS'A334.png'
p585
(dp586
g3
F0.950256169
sg4
F0.0167893488
sg5
F0.000376982265
sg6
F0.001824697
sg7
F0.00022045958
sg8
F3.7522168e-05
sg9
F0.00204318552
sg10
F0.0284516122
ssS'A288.png'
p587
(dp588
g3
F0.7899401
sg4
F0.00751473568
sg5
F0.03977612
sg6
F0.00957583
sg7
F0.000102567916
sg8
F0.000100378806
sg9
F0.0517099
sg10
F0.101280347
ssS'A359.png'
p589
(dp590
g3
F0.8639248
sg4
F0.129344925
sg5
F0.000128735817
sg6
F1.66389709e-05
sg7
F5.4625496e-05
sg8
F5.11932158e-05
sg9
F0.00137263082
sg10
F0.00510643469
ssS'A167.png'
p591
(dp592
g3
F0.9074169
sg4
F0.081622906
sg5
F0.000198322086
sg6
F0.0003072985
sg7
F5.586819e-05
sg8
F1.44566729e-05
sg9
F0.006086748
sg10
F0.00429750374
ssS'A287.png'
p593
(dp594
g3
F0.715600252
sg4
F0.0100351591
sg5
F0.0724446848
sg6
F0.0118677905
sg7
F0.000199648144
sg8
F0.000134280519
sg9
F0.0339979157
sg10
F0.155720249
ssS'A94.png'
p595
(dp596
g3
F0.008271887
sg4
F4.94101542e-08
sg5
F0.000111400775
sg6
F1.81582763e-07
sg7
F5.16973444e-07
sg8
F0.000160690892
sg9
F0.9913428
sg10
F0.000112511385
ssS'A230.png'
p597
(dp598
g3
F5.26767644e-06
sg4
F0.9999942
sg5
F9.60581659e-08
sg6
F3.734689e-12
sg7
F5.721747e-11
sg8
F3.41053954e-13
sg9
F2.526085e-10
sg10
F4.16968078e-07
ssS'A291.png'
p599
(dp600
g3
F0.8605874
sg4
F0.00905018
sg5
F0.0271287858
sg6
F0.0100831864
sg7
F0.000126391184
sg8
F0.000119806587
sg9
F0.0552545972
sg10
F0.03764965
ssS'A260.png'
p601
(dp602
g3
F0.08913342
sg4
F0.798501253
sg5
F0.0348076522
sg6
F0.000675443735
sg7
F0.000187721787
sg8
F0.000578609935
sg9
F0.00371114141
sg10
F0.07240479
ssS'A25.png'
p603
(dp604
g3
F0.000370425929
sg4
F0.9994803
sg5
F8.14999964e-07
sg6
F1.05304189e-10
sg7
F4.830094e-08
sg8
F3.19709015e-09
sg9
F1.81515436e-09
sg10
F0.00014840519
ssS'A261.png'
p605
(dp606
g3
F0.114248894
sg4
F0.709911
sg5
F0.06471563
sg6
F0.0005203038
sg7
F0.000340557774
sg8
F0.000862877059
sg9
F0.0110041276
sg10
F0.0983966
ssS'A64.png'
p607
(dp608
g3
F0.00106254849
sg4
F1.19677288e-05
sg5
F0.00105756661
sg6
F3.974742e-08
sg7
F3.281468e-07
sg8
F0.000371060247
sg9
F0.996934831
sg10
F0.0005616608
ssS'A158.png'
p609
(dp610
g3
F0.522269
sg4
F0.469623357
sg5
F0.000830654055
sg6
F0.000101489823
sg7
F2.20272232e-05
sg8
F4.810497e-06
sg9
F0.0009548687
sg10
F0.0061937985
ssS'A195.png'
p611
(dp612
g3
F0.804231346
sg4
F0.0006399413
sg5
F0.000230612539
sg6
F0.000424692436
sg7
F4.34492431e-05
sg8
F4.11246765e-05
sg9
F0.193090633
sg10
F0.00129818509
ssS'A080.png'
p613
(dp614
g3
F0.00126150285
sg4
F6.969262e-07
sg5
F0.000522740535
sg6
F2.474258e-08
sg7
F1.72772644e-07
sg8
F0.0002443749
sg9
F0.997711658
sg10
F0.000258805434
ssS'A162.png'
p615
(dp616
g3
F0.884866834
sg4
F0.111187972
sg5
F3.93299961e-05
sg6
F7.833125e-05
sg7
F1.89703769e-05
sg8
F3.790054e-06
sg9
F0.00125562807
sg10
F0.002549131
ssS'A222.png'
p617
(dp618
g3
F2.17158927e-07
sg4
F0.999999762
sg5
F2.36443132e-09
sg6
F6.31207665e-14
sg7
F2.090496e-12
sg8
F1.30868674e-14
sg9
F4.203214e-12
sg10
F8.42656e-09
ssS'A397.png'
p619
(dp620
g3
F0.694583654
sg4
F0.302472651
sg5
F6.54241467e-06
sg6
F2.188473e-06
sg7
F9.533712e-06
sg8
F4.50928565e-06
sg9
F0.0009111084
sg10
F0.00200984138
ssS'B96.png'
p621
(dp622
g3
F0.8416899
sg4
F0.00128243212
sg5
F0.000137635725
sg6
F0.000437266979
sg7
F5.16796936e-05
sg8
F1.80968709e-05
sg9
F0.153308257
sg10
F0.003074717
ssS'A343.png'
p623
(dp624
g3
F0.9787538
sg4
F0.0118919378
sg5
F0.00017786368
sg6
F0.000145726823
sg7
F0.000143026016
sg8
F5.79282168e-05
sg9
F0.003265817
sg10
F0.005563878
ssS'A57.png'
p625
(dp626
g3
F0.02199967
sg4
F0.009134272
sg5
F0.00136475288
sg6
F5.70528641e-07
sg7
F5.875066e-06
sg8
F0.00525722
sg9
F0.959889948
sg10
F0.00234767
ssS'A99.png'
p627
(dp628
g3
F0.007369603
sg4
F6.657763e-08
sg5
F0.000302577566
sg6
F2.47087684e-07
sg7
F4.385569e-06
sg8
F0.00147692324
sg9
F0.990462661
sg10
F0.0003835488
ssS'A052.png'
p629
(dp630
g3
F0.0714912
sg4
F0.286413759
sg5
F0.00354118249
sg6
F9.551171e-06
sg7
F5.900099e-05
sg8
F0.016724946
sg9
F0.6149409
sg10
F0.006819516
ssS'A322.png'
p631
(dp632
g3
F0.9926873
sg4
F0.00109784771
sg5
F2.665246e-05
sg6
F0.0001300961
sg7
F2.85185729e-06
sg8
F6.460752e-07
sg9
F0.00268817181
sg10
F0.00336645357
ssS'A057.png'
p633
(dp634
g3
F0.0578610152
sg4
F0.0405468
sg5
F0.00358313066
sg6
F6.063712e-06
sg7
F7.927031e-05
sg8
F0.0130669344
sg9
F0.879165351
sg10
F0.00569141936
ssS'A209.png'
p635
(dp636
g3
F4.740434e-09
sg4
F1.0
sg5
F1.45026283e-10
sg6
F1.79439552e-13
sg7
F2.932995e-13
sg8
F1.31634248e-14
sg9
F2.61079027e-13
sg10
F1.14403577e-10
ssS'A395.png'
p637
(dp638
g3
F0.6397281
sg4
F0.3583406
sg5
F2.2152044e-06
sg6
F7.028926e-07
sg7
F4.11380324e-06
sg8
F1.354445e-06
sg9
F0.00013362609
sg10
F0.00178926543
ssS'B33.png'
p639
(dp640
g3
F0.0007387062
sg4
F0.9992517
sg5
F7.314589e-08
sg6
F7.96186228e-10
sg7
F1.27881739e-09
sg8
F7.10222332e-12
sg9
F3.262012e-10
sg10
F9.490123e-06
ssS'A193.png'
p641
(dp642
g3
F0.843596041
sg4
F0.0020324653
sg5
F0.0003794761
sg6
F0.000221468508
sg7
F5.52069978e-05
sg8
F3.785405e-05
sg9
F0.1513441
sg10
F0.00233338634
ssS'A318.png'
p643
(dp644
g3
F0.989832938
sg4
F0.00254042656
sg5
F3.63860745e-05
sg6
F0.0003923192
sg7
F7.049919e-05
sg8
F1.07356582e-05
sg9
F0.00377122243
sg10
F0.003345454
ssS'A239.png'
p645
(dp646
g3
F0.00037253878
sg4
F0.9995698
sg5
F1.18054668e-05
sg6
F1.710711e-09
sg7
F1.730085e-08
sg8
F6.465099e-10
sg9
F3.09932857e-09
sg10
F4.584296e-05
ssS'A065.png'
p647
(dp648
g3
F0.0004596409
sg4
F4.0396817e-06
sg5
F0.000277524668
sg6
F3.20848415e-09
sg7
F2.45940281e-08
sg8
F0.000123135324
sg9
F0.999040365
sg10
F9.527292e-05
ssS'A040.png'
p649
(dp650
g3
F0.017846534
sg4
F0.9618848
sg5
F0.000712128764
sg6
F7.606384e-07
sg7
F1.50308169e-05
sg8
F0.00126365572
sg9
F0.0115402723
sg10
F0.006736827
ssS'A068.png'
p651
(dp652
g3
F0.00086000876
sg4
F2.53493022e-06
sg5
F0.000410259643
sg6
F2.988537e-09
sg7
F8.2345764e-08
sg8
F0.000418398355
sg9
F0.998042166
sg10
F0.0002665733
ssS'C11.png'
p653
(dp654
g3
F1.52115742e-08
sg4
F1.0
sg5
F7.653555e-10
sg6
F7.57913643e-13
sg7
F2.06571587e-12
sg8
F2.08865409e-13
sg9
F1.43452568e-11
sg10
F5.304254e-10
ssS'B43.png'
p655
(dp656
g3
F0.01743911
sg4
F0.982236266
sg5
F1.40630073e-05
sg6
F3.506692e-07
sg7
F1.4094573e-07
sg8
F6.53902266e-09
sg9
F1.77654925e-07
sg10
F0.000309896743
ssS'B61.png'
p657
(dp658
g3
F0.7137591
sg4
F0.276333123
sg5
F0.0006048026
sg6
F0.0003038686
sg7
F7.077791e-05
sg8
F1.96261462e-05
sg9
F0.00228341576
sg10
F0.00662526535
ssS'A74.png'
p659
(dp660
g3
F0.0006245454
sg4
F1.04867775e-06
sg5
F0.0007148521
sg6
F1.49039039e-08
sg7
F1.66355875e-07
sg8
F0.000419251155
sg9
F0.997860432
sg10
F0.000379717385
ssS'C28.png'
p661
(dp662
g3
F7.941029e-07
sg4
F0.9999982
sg5
F4.81811071e-08
sg6
F3.517821e-14
sg7
F2.75992944e-12
sg8
F2.36730953e-14
sg9
F1.20938667e-11
sg10
F9.34059244e-07
ssS'B31.png'
p663
(dp664
g3
F0.0002361903
sg4
F0.999762833
sg5
F3.16010929e-09
sg6
F6.609584e-11
sg7
F5.15751664e-10
sg8
F6.318172e-13
sg9
F7.56510063e-11
sg10
F9.705319e-07
ssS'B21.png'
p665
(dp666
g3
F7.895155e-07
sg4
F0.9999992
sg5
F2.47081956e-11
sg6
F2.74353457e-13
sg7
F1.72892846e-11
sg8
F4.79020552e-15
sg9
F9.640121e-14
sg10
F3.1248657e-09
ssS'A273.png'
p667
(dp668
g3
F0.3821157
sg4
F0.281865448
sg5
F0.07328089
sg6
F0.004122976
sg7
F0.0009919236
sg8
F0.00287081185
sg9
F0.04784988
sg10
F0.206902385
ssS'B45.png'
p669
(dp670
g3
F0.0255792458
sg4
F0.9740105
sg5
F4.3448752e-05
sg6
F6.760111e-07
sg7
F3.08586777e-07
sg8
F1.14271721e-08
sg9
F4.931372e-07
sg10
F0.000365277083
ssS'A067.png'
p671
(dp672
g3
F0.000338685553
sg4
F1.36044844e-06
sg5
F0.000402024161
sg6
F2.78293832e-09
sg7
F6.027976e-08
sg8
F0.000359461847
sg9
F0.9987724
sg10
F0.000126002124
ssS'A226.png'
p673
(dp674
g3
F9.476684e-07
sg4
F0.999997735
sg5
F1.22436347e-07
sg6
F2.57949061e-14
sg7
F2.7703497e-12
sg8
F1.67357075e-14
sg9
F1.75078129e-11
sg10
F1.19409617e-06
ssS'A9.png'
p675
(dp676
g3
F1.38166718e-06
sg4
F0.999998331
sg5
F3.84751786e-10
sg6
F5.61464734e-14
sg7
F6.01005573e-12
sg8
F3.96882539e-14
sg9
F1.06103912e-14
sg10
F2.7795042e-07
ssS'A189.png'
p677
(dp678
g3
F0.9466966
sg4
F0.000628096634
sg5
F0.000152416862
sg6
F0.000261586043
sg7
F5.145897e-05
sg8
F1.83794e-05
sg9
F0.05122393
sg10
F0.0009675284
ssS'A350.png'
p679
(dp680
g3
F0.906831861
sg4
F0.07546119
sg5
F0.000562680536
sg6
F0.000168777289
sg7
F0.000196401452
sg8
F0.000113779068
sg9
F0.00403127447
sg10
F0.0126340622
ssS'A293.png'
p681
(dp682
g3
F0.91398716
sg4
F0.00742824655
sg5
F0.0157583561
sg6
F0.008251754
sg7
F0.000151598375
sg8
F4.932307e-05
sg9
F0.011639691
sg10
F0.0427338481
ssS'C85.png'
p683
(dp684
g3
F0.6533615
sg4
F0.0203342121
sg5
F0.05543878
sg6
F0.0117933126
sg7
F0.000163291843
sg8
F0.000205713543
sg9
F0.0362476148
sg10
F0.222455591
ssS'A351.png'
p685
(dp686
g3
F0.9671092
sg4
F0.0236287024
sg5
F0.0001724772
sg6
F0.000136358489
sg7
F0.000268046424
sg8
F0.000146926075
sg9
F0.00348875881
sg10
F0.00504952949
ssS'C29.png'
p687
(dp688
g3
F6.043664e-07
sg4
F0.9999989
sg5
F8.310703e-09
sg6
F5.178263e-14
sg7
F1.10900438e-12
sg8
F6.2784e-15
sg9
F2.75595475e-12
sg10
F4.37277663e-07
ssS'A375.png'
p689
(dp690
g3
F0.942652166
sg4
F0.0455743521
sg5
F0.000167881546
sg6
F2.03323034e-05
sg7
F1.30583967e-05
sg8
F1.56126171e-05
sg9
F0.00366529869
sg10
F0.007891318
ssS'A44.png'
p691
(dp692
g3
F0.0619526431
sg4
F0.6823743
sg5
F0.004298246
sg6
F1.90812261e-05
sg7
F8.181544e-05
sg8
F0.03697922
sg9
F0.2028451
sg10
F0.0114495773
ssS'B3.png'
p693
(dp694
g3
F7.858731e-10
sg4
F1.0
sg5
F4.985573e-15
sg6
F8.075511e-16
sg7
F2.47919361e-13
sg8
F3.17994267e-17
sg9
F1.58692642e-16
sg10
F5.47755e-13
ssS'A200.png'
p695
(dp696
g3
F0.8866209
sg4
F0.00176712032
sg5
F0.0002513059
sg6
F0.0005950626
sg7
F0.000132064422
sg8
F5.2752086e-05
sg9
F0.108780913
sg10
F0.00179987145
ssS'A320.png'
p697
(dp698
g3
F0.991831243
sg4
F0.00191933569
sg5
F2.82969613e-05
sg6
F4.73591244e-05
sg7
F3.07812616e-06
sg8
F1.20533343e-06
sg9
F0.00150193344
sg10
F0.004667548
ssS'B19.png'
p699
(dp700
g3
F4.739153e-07
sg4
F0.9999995
sg5
F1.10242137e-11
sg6
F1.60970033e-13
sg7
F1.07870934e-11
sg8
F2.53355178e-15
sg9
F4.53912149e-14
sg10
F1.66081382e-09
ssS'C73.png'
p701
(dp702
g3
F0.3821157
sg4
F0.281865448
sg5
F0.07328089
sg6
F0.004122976
sg7
F0.0009919236
sg8
F0.00287081185
sg9
F0.04784988
sg10
F0.206902385
ssS'B97.png'
p703
(dp704
g3
F0.8903113
sg4
F0.00239304756
sg5
F0.0003265234
sg6
F0.0008720005
sg7
F0.000129537162
sg8
F4.572334e-05
sg9
F0.101271309
sg10
F0.00465055648
ssS'A42.png'
p705
(dp706
g3
F0.019267099
sg4
F0.957787633
sg5
F0.00076967763
sg6
F5.60326043e-07
sg7
F1.00879606e-05
sg8
F0.00122110569
sg9
F0.0159128383
sg10
F0.005031024
ssS'A207.png'
p707
(dp708
g3
F4.93438845e-09
sg4
F1.0
sg5
F4.2562693e-11
sg6
F1.36906748e-13
sg7
F2.143894e-13
sg8
F5.03987865e-15
sg9
F1.56226025e-13
sg10
F1.30289654e-10
ssS'A341.png'
p709
(dp710
g3
F0.9802053
sg4
F0.0106229018
sg5
F9.106522e-05
sg6
F0.000237080865
sg7
F0.000131819281
sg8
F4.2590902e-05
sg9
F0.002569169
sg10
F0.00610010326
ssS'C44.png'
p711
(dp712
g3
F0.006857213
sg4
F0.990969837
sg5
F0.0007039977
sg6
F1.10684516e-06
sg7
F2.31360536e-06
sg8
F3.32587575e-07
sg9
F7.77151456e-07
sg10
F0.00146443886
ssS'C39.png'
p713
(dp714
g3
F0.00037253878
sg4
F0.9995698
sg5
F1.18054668e-05
sg6
F1.710711e-09
sg7
F1.730085e-08
sg8
F6.465099e-10
sg9
F3.09932857e-09
sg10
F4.584296e-05
ssS'A138.png'
p715
(dp716
g3
F0.0187050961
sg4
F0.980977058
sg5
F1.04399705e-05
sg6
F3.175228e-07
sg7
F2.22772016e-07
sg8
F4.916402e-09
sg9
F1.48737641e-07
sg10
F0.0003067315
ssS'A176.png'
p717
(dp718
g3
F0.9662157
sg4
F0.005402289
sg5
F0.000473234
sg6
F0.0002809761
sg7
F0.000103982282
sg8
F2.51306665e-05
sg9
F0.0250275973
sg10
F0.00247103744
ssS'A078.png'
p719
(dp720
g3
F0.00319792121
sg4
F4.55678475e-07
sg5
F0.000137683863
sg6
F3.80165979e-08
sg7
F1.32537679e-07
sg8
F8.84075562e-05
sg9
F0.996531069
sg10
F4.42916134e-05
ssS'A055.png'
p721
(dp722
g3
F0.0511495
sg4
F0.0680137351
sg5
F0.00403201161
sg6
F4.798273e-06
sg7
F4.65954472e-05
sg8
F0.0199866965
sg9
F0.8490402
sg10
F0.007726471
ssS'A004.png'
p723
(dp724
g3
F1.16525746e-06
sg4
F0.9999986
sg5
F1.407911e-10
sg6
F6.99901122e-15
sg7
F1.3909762e-12
sg8
F1.53623581e-15
sg9
F1.31548664e-15
sg10
F2.28634107e-07
ssS'B63.png'
p725
(dp726
g3
F0.723873258
sg4
F0.272624344
sg5
F9.658645e-05
sg6
F2.403484e-05
sg7
F1.87015348e-06
sg8
F6.391534e-07
sg9
F0.0010692497
sg10
F0.00230998243
ssS'C72.png'
p727
(dp728
g3
F0.372825056
sg4
F0.2933675
sg5
F0.082121186
sg6
F0.00484516146
sg7
F0.00107642484
sg8
F0.00283967424
sg9
F0.04556405
sg10
F0.197360948
ssS'A366.png'
p729
(dp730
g3
F0.901212156
sg4
F0.0832076445
sg5
F0.000100093661
sg6
F4.92893e-06
sg7
F1.41265787e-06
sg8
F3.913686e-06
sg9
F0.00188262982
sg10
F0.0135872131
ssS'A075.png'
p731
(dp732
g3
F0.000132360685
sg4
F1.27642849e-07
sg5
F1.0772671e-05
sg6
F1.10170512e-10
sg7
F6.41517373e-09
sg8
F6.655158e-05
sg9
F0.9997878
sg10
F2.40250688e-06
ssS'B17.png'
p733
(dp734
g3
F1.3230526e-07
sg4
F0.9999999
sg5
F4.16942349e-12
sg6
F2.54652684e-15
sg7
F2.853554e-14
sg8
F1.00057884e-17
sg9
F4.83098423e-15
sg10
F1.400345e-09
ssS'B94.png'
p735
(dp736
g3
F0.8950588
sg4
F0.0007906255
sg5
F0.000107019529
sg6
F0.000321210333
sg7
F0.000130329165
sg8
F3.41570558e-05
sg9
F0.102225892
sg10
F0.001331959
ssS'A096.png'
p737
(dp738
g3
F0.0374324881
sg4
F1.2991535e-06
sg5
F0.002640292
sg6
F1.40111888e-05
sg7
F2.24078449e-05
sg8
F0.00328605319
sg9
F0.955150843
sg10
F0.0014526142
ssS'A339.png'
p739
(dp740
g3
F0.992850065
sg4
F0.00246020337
sg5
F2.66981988e-05
sg6
F0.000113772418
sg7
F0.000127256819
sg8
F3.090625e-05
sg9
F0.0009474062
sg10
F0.00344367139
ssS'C45.png'
p741
(dp742
g3
F0.00150900241
sg4
F0.997400761
sg5
F0.0005561081
sg6
F5.11012743e-08
sg7
F3.04926857e-07
sg8
F6.30285456e-07
sg9
F2.556953e-05
sg10
F0.0005075876
ssS'A157.png'
p743
(dp744
g3
F0.572775245
sg4
F0.420056015
sg5
F0.00123582361
sg6
F0.000296367478
sg7
F8.567335e-05
sg8
F2.25447184e-05
sg9
F0.000962700869
sg10
F0.00456563
ssS'A271.png'
p745
(dp746
g3
F0.403585255
sg4
F0.213032663
sg5
F0.107128792
sg6
F0.008373621
sg7
F0.00144291786
sg8
F0.00192253047
sg9
F0.03361852
sg10
F0.230895713
ssS'B11.png'
p747
(dp748
g3
F1.22964536e-08
sg4
F1.0
sg5
F1.78420484e-13
sg6
F2.57457972e-15
sg7
F2.95975619e-13
sg8
F2.12397972e-16
sg9
F1.56282492e-15
sg10
F6.815966e-11
ssS'A40.png'
p749
(dp750
g3
F0.0137488917
sg4
F0.9672862
sg5
F0.0006580199
sg6
F1.09683207e-07
sg7
F6.042172e-06
sg8
F0.000549899
sg9
F0.0135519067
sg10
F0.00419888133
ssS'A084.png'
p751
(dp752
g3
F0.00163843972
sg4
F5.671312e-07
sg5
F0.000115682305
sg6
F1.576663e-08
sg7
F7.598606e-09
sg8
F1.12808229e-05
sg9
F0.9981688
sg10
F6.52038e-05
ssS'A045.png'
p753
(dp754
g3
F0.0603026338
sg4
F0.8523411
sg5
F0.00144721137
sg6
F5.080756e-06
sg7
F5.989715e-05
sg8
F0.009021906
sg9
F0.0687451959
sg10
F0.008076933
ssS'A020.png'
p755
(dp756
g3
F8.66408e-05
sg4
F0.9998865
sg5
F7.485236e-08
sg6
F2.74245383e-11
sg7
F4.9659854e-09
sg8
F2.17877438e-10
sg9
F2.81179784e-11
sg10
F2.67499145e-05
ssS'A173.png'
p757
(dp758
g3
F0.9663468
sg4
F0.00664821966
sg5
F0.0003219844
sg6
F0.0002555676
sg7
F0.000186758058
sg8
F7.407075e-05
sg9
F0.022630142
sg10
F0.003536464
ssS'A017.png'
p759
(dp760
g3
F1.11980462e-05
sg4
F0.9999862
sg5
F3.73753e-09
sg6
F1.011316e-12
sg7
F2.92547236e-10
sg8
F5.67420546e-12
sg9
F7.971046e-13
sg10
F2.62772915e-06
ssS'A69.png'
p761
(dp762
g3
F0.001891437
sg4
F1.45720915e-05
sg5
F0.000320198276
sg6
F1.12687584e-08
sg7
F3.22513472e-07
sg8
F0.0004872375
sg9
F0.9969165
sg10
F0.000369746442
ssS'A003.png'
p763
(dp764
g3
F1.83977659e-06
sg4
F0.999997556
sg5
F8.25514046e-10
sg6
F2.09820683e-14
sg7
F1.6545477e-12
sg8
F2.55343842e-14
sg9
F1.25884664e-14
sg10
F6.21631159e-07
ssS'A039.png'
p765
(dp766
g3
F0.0057865316
sg4
F0.991823852
sg5
F8.649685e-05
sg6
F2.69386113e-08
sg7
F2.61584751e-06
sg8
F1.51275945e-05
sg9
F0.00011840072
sg10
F0.0021669548
ssS'A66.png'
p767
(dp768
g3
F0.0005761726
sg4
F7.58980559e-06
sg5
F0.0001774905
sg6
F6.08312e-09
sg7
F5.03720265e-08
sg8
F0.000110990659
sg9
F0.9990404
sg10
F8.72925448e-05
ssS'A048.png'
p769
(dp770
g3
F0.0840156749
sg4
F0.6868446
sg5
F0.001173713
sg6
F3.66238987e-06
sg7
F7.86695746e-05
sg8
F0.01580444
sg9
F0.203725249
sg10
F0.008353985
ssS'C9.png'
p771
(dp772
g3
F4.740434e-09
sg4
F1.0
sg5
F1.45026283e-10
sg6
F1.79439552e-13
sg7
F2.932995e-13
sg8
F1.31634248e-14
sg9
F2.61079027e-13
sg10
F1.14403577e-10
ssS'A043.png'
p773
(dp774
g3
F0.0279765911
sg4
F0.6314819
sg5
F0.0009765413
sg6
F1.9899413e-07
sg7
F8.70076747e-06
sg8
F0.003168076
sg9
F0.332789779
sg10
F0.00359821576
ssS'A081.png'
p775
(dp776
g3
F0.0206194837
sg4
F2.981378e-06
sg5
F0.000262626127
sg6
F3.759322e-07
sg7
F1.82405165e-06
sg8
F0.0003777599
sg9
F0.978575349
sg10
F0.00015957086
ssS'A147.png'
p777
(dp778
g3
F0.137026533
sg4
F0.8567394
sg5
F0.00048812764
sg6
F6.499009e-05
sg7
F1.77695038e-05
sg8
F2.57497368e-06
sg9
F5.22820956e-05
sg10
F0.005608339
ssS'B10.png'
p779
(dp780
g3
F5.860648e-09
sg4
F1.0
sg5
F2.22944167e-13
sg6
F1.3441388e-15
sg7
F2.54309323e-13
sg8
F3.01283465e-17
sg9
F1.82910015e-16
sg10
F3.13264657e-11
ssS'A292.png'
p781
(dp782
g3
F0.7554504
sg4
F0.008233743
sg5
F0.0290731322
sg6
F0.0144769456
sg7
F0.000238494467
sg8
F0.000365035929
sg9
F0.124289475
sg10
F0.0678727552
ssS'A34.png'
p783
(dp784
g3
F0.00262371078
sg4
F0.9964654
sg5
F1.08201748e-05
sg6
F4.56230653e-09
sg7
F2.18969731e-07
sg8
F1.35992e-07
sg9
F4.227907e-07
sg10
F0.0008992965
ssS'B74.png'
p785
(dp786
g3
F0.9727139
sg4
F0.0133962622
sg5
F0.0001628346
sg6
F0.000275987957
sg7
F0.0001418095
sg8
F2.36350061e-05
sg9
F0.0113584008
sg10
F0.00192716671
ssS'C58.png'
p787
(dp788
g3
F0.09613679
sg4
F0.78426373
sg5
F0.0474967174
sg6
F0.0006379635
sg7
F0.000238083259
sg8
F0.0006640416
sg9
F0.00408041431
sg10
F0.06648223
ssS'A149.png'
p789
(dp790
g3
F0.178888664
sg4
F0.818230152
sg5
F0.000178370858
sg6
F1.47535075e-05
sg7
F3.43198644e-06
sg8
F3.60151517e-07
sg9
F5.78212348e-05
sg10
F0.00262647541
ssS'C22.png'
p791
(dp792
g3
F2.17158927e-07
sg4
F0.999999762
sg5
F2.36443132e-09
sg6
F6.31207665e-14
sg7
F2.090496e-12
sg8
F1.30868674e-14
sg9
F4.203214e-12
sg10
F8.42656e-09
ssS'A164.png'
p793
(dp794
g3
F0.87905395
sg4
F0.1166275
sg5
F6.311994e-05
sg6
F2.3947985e-05
sg7
F4.97391829e-06
sg8
F1.4428839e-06
sg9
F0.00157497346
sg10
F0.00265007
ssS'A48.png'
p795
(dp796
g3
F0.05195514
sg4
F0.309455127
sg5
F0.00410748
sg6
F1.17025775e-05
sg7
F8.116617e-05
sg8
F0.03136015
sg9
F0.5945639
sg10
F0.008465323
ssS'A083.png'
p797
(dp798
g3
F0.0206736159
sg4
F3.783007e-06
sg5
F0.000114210947
sg6
F1.49838868e-07
sg7
F4.050419e-08
sg8
F1.97394056e-05
sg9
F0.9790694
sg10
F0.000119049982
ssS'A290.png'
p799
(dp800
g3
F0.6959473
sg4
F0.0221155751
sg5
F0.07618978
sg6
F0.00879915
sg7
F0.000347321125
sg8
F0.0004929024
sg9
F0.07212437
sg10
F0.123983629
ssS'A006.png'
p801
(dp802
g3
F7.01607235e-07
sg4
F0.9999992
sg5
F8.72606e-12
sg6
F2.429624e-15
sg7
F2.869863e-13
sg8
F5.805396e-16
sg9
F1.511496e-16
sg10
F4.42600872e-08
ssS'A365.png'
p803
(dp804
g3
F0.923451066
sg4
F0.06869312
sg5
F6.39242353e-05
sg6
F1.04810833e-05
sg7
F1.35639693e-05
sg8
F2.56648364e-05
sg9
F0.0017695697
sg10
F0.00597259961
ssS'A76.png'
p805
(dp806
g3
F0.0015861803
sg4
F2.33602418e-06
sg5
F0.000321544154
sg6
F1.98101358e-08
sg7
F4.92760037e-08
sg8
F4.84679149e-05
sg9
F0.997896433
sg10
F0.000144991864
ssS'B52.png'
p807
(dp808
g3
F0.184288442
sg4
F0.809148848
sg5
F0.0004407452
sg6
F3.502704e-05
sg7
F1.79507642e-05
sg8
F1.91250342e-06
sg9
F6.00496242e-05
sg10
F0.00600703061
ssS'A354.png'
p809
(dp810
g3
F0.905656457
sg4
F0.0848043
sg5
F0.000179165771
sg6
F2.15576565e-05
sg7
F7.04433842e-05
sg8
F9.83732461e-05
sg9
F0.002395484
sg10
F0.006774235
ssS'A275.png'
p811
(dp812
g3
F0.3543528
sg4
F0.133019239
sg5
F0.195882753
sg6
F0.0111362142
sg7
F0.001412834
sg8
F0.00370854186
sg9
F0.08726802
sg10
F0.213219613
ssS'A310.png'
p813
(dp814
g3
F0.9697833
sg4
F0.00170160783
sg5
F0.000348162866
sg6
F0.00366646517
sg7
F0.00194762379
sg8
F0.000370381429
sg9
F0.0157524738
sg10
F0.00642998237
ssS'B42.png'
p815
(dp816
g3
F0.03167722
sg4
F0.967595339
sg5
F1.66371665e-05
sg6
F3.12726968e-07
sg7
F9.63964837e-08
sg8
F3.301855e-09
sg9
F2.88544129e-07
sg10
F0.000710111053
ssS'A382.png'
p817
(dp818
g3
F0.971471965
sg4
F0.0274245646
sg5
F3.03107481e-06
sg6
F6.76930767e-07
sg7
F5.046376e-08
sg8
F7.99068545e-08
sg9
F0.0002785333
sg10
F0.000821089663
ssS'C64.png'
p819
(dp820
g3
F0.142793879
sg4
F0.5987059
sg5
F0.107487254
sg6
F0.00212572212
sg7
F0.0008206479
sg8
F0.00210256618
sg9
F0.0258059949
sg10
F0.120158076
ssS'C61.png'
p821
(dp822
g3
F0.114248894
sg4
F0.709911
sg5
F0.06471563
sg6
F0.0005203038
sg7
F0.000340557774
sg8
F0.000862877059
sg9
F0.0110041276
sg10
F0.0983966
ssS'A60.png'
p823
(dp824
g3
F0.006317891
sg4
F0.00149045291
sg5
F0.0003665521
sg6
F6.605775e-08
sg7
F4.716473e-07
sg8
F0.0005193207
sg9
F0.9909615
sg10
F0.000343745342
ssS'A130.png'
p825
(dp826
g3
F5.983625e-05
sg4
F0.9999399
sg5
F2.44455678e-09
sg6
F1.90965421e-11
sg7
F1.92855645e-11
sg8
F8.60383338e-14
sg9
F2.39895569e-11
sg10
F2.6787157e-07
ssS'A18.png'
p827
(dp828
g3
F3.311726e-05
sg4
F0.999954641
sg5
F1.84514271e-08
sg6
F4.99653e-12
sg7
F1.07571985e-09
sg8
F2.91146239e-11
sg9
F6.14527439e-12
sg10
F1.22330821e-05
ssS'A143.png'
p829
(dp830
g3
F0.01743911
sg4
F0.982236266
sg5
F1.40630073e-05
sg6
F3.506692e-07
sg7
F1.4094573e-07
sg8
F6.53902266e-09
sg9
F1.77654925e-07
sg10
F0.000309896743
ssS'A93.png'
p831
(dp832
g3
F0.009672595
sg4
F2.51201163e-06
sg5
F0.0009754108
sg6
F1.76998481e-06
sg7
F6.276143e-07
sg8
F0.000325713074
sg9
F0.987816
sg10
F0.00120541384
ssS'C31.png'
p833
(dp834
g3
F2.19032859e-06
sg4
F0.9999971
sg5
F1.3646714e-08
sg6
F6.344141e-14
sg7
F3.13914346e-12
sg8
F6.67306828e-15
sg9
F3.61490867e-13
sg10
F7.42919838e-07
ssS'B58.png'
p835
(dp836
g3
F0.522269
sg4
F0.469623357
sg5
F0.000830654055
sg6
F0.000101489823
sg7
F2.20272232e-05
sg8
F4.810497e-06
sg9
F0.0009548687
sg10
F0.0061937985
ssS'A015.png'
p837
(dp838
g3
F6.44073662e-05
sg4
F0.9999136
sg5
F6.859519e-08
sg6
F2.15399035e-11
sg7
F2.66865752e-09
sg8
F3.48051553e-11
sg9
F9.493012e-12
sg10
F2.19460453e-05
ssS'B99.png'
p839
(dp840
g3
F0.891701
sg4
F0.00119637768
sg5
F0.000361641025
sg6
F0.000576442049
sg7
F0.000128217944
sg8
F3.670942e-05
sg9
F0.0997164
sg10
F0.006283222
ssS'A371.png'
p841
(dp842
g3
F0.714118063
sg4
F0.246452972
sg5
F0.000391523674
sg6
F5.917573e-06
sg7
F1.39961855e-06
sg8
F3.39453572e-06
sg9
F0.00250388938
sg10
F0.0365228169
ssS'C63.png'
p843
(dp844
g3
F0.212298065
sg4
F0.6590636
sg5
F0.0325126238
sg6
F0.0008022202
sg7
F0.00017919713
sg8
F0.000112741771
sg9
F0.00264464063
sg10
F0.09238695
ssS'B95.png'
p845
(dp846
g3
F0.804231346
sg4
F0.0006399413
sg5
F0.000230612539
sg6
F0.000424692436
sg7
F4.34492431e-05
sg8
F4.11246765e-05
sg9
F0.193090633
sg10
F0.00129818509
ssS'A335.png'
p847
(dp848
g3
F0.9767707
sg4
F0.013726769
sg5
F2.44730945e-05
sg6
F0.000393216818
sg7
F0.000175335968
sg8
F1.18617827e-05
sg9
F0.0002599292
sg10
F0.008637721
ssS'A228.png'
p849
(dp850
g3
F7.941029e-07
sg4
F0.9999982
sg5
F4.81811071e-08
sg6
F3.517821e-14
sg7
F2.75992944e-12
sg8
F2.36730953e-14
sg9
F1.20938667e-11
sg10
F9.34059244e-07
ssS'A125.png'
p851
(dp852
g3
F6.433268e-06
sg4
F0.9999935
sg5
F3.49324625e-10
sg6
F3.39576376e-13
sg7
F5.181382e-12
sg8
F4.530788e-15
sg9
F9.765582e-13
sg10
F3.834302e-08
ssS'A166.png'
p853
(dp854
g3
F0.895650864
sg4
F0.09342647
sg5
F0.000179187133
sg6
F0.000248595519
sg7
F6.93502661e-05
sg8
F3.46418674e-05
sg9
F0.006652523
sg10
F0.00373834535
ssS'A303.png'
p855
(dp856
g3
F0.972922862
sg4
F0.00257804524
sg5
F4.13158268e-05
sg6
F0.0006149014
sg7
F0.000203168616
sg8
F4.33795431e-05
sg9
F0.0207550116
sg10
F0.002841329
ssS'A82.png'
p857
(dp858
g3
F0.00271834084
sg4
F4.33929984e-07
sg5
F0.000287823379
sg6
F1.08783667e-07
sg7
F2.529653e-07
sg8
F0.000120558652
sg9
F0.996652842
sg10
F0.00021961781
ssS'C94.png'
p859
(dp860
g3
F0.8021972
sg4
F0.00617725262
sg5
F0.021534346
sg6
F0.0173900686
sg7
F0.000304274319
sg8
F0.000271284051
sg9
F0.102738045
sg10
F0.04938752
ssS'A13.png'
p861
(dp862
g3
F1.48562021e-05
sg4
F0.99998
sg5
F4.164133e-09
sg6
F1.42878363e-12
sg7
F1.00507651e-10
sg8
F8.252086e-13
sg9
F4.656488e-13
sg10
F5.195023e-06
ssS'A037.png'
p863
(dp864
g3
F0.0100582326
sg4
F0.9884679
sg5
F5.721882e-05
sg6
F1.4530074e-08
sg7
F1.23078871e-06
sg8
F2.08688039e-06
sg9
F4.43377321e-05
sg10
F0.00136898237
ssS'A038.png'
p865
(dp866
g3
F0.00449025631
sg4
F0.9944689
sg5
F3.95735369e-05
sg6
F3.97606348e-09
sg7
F5.02374746e-07
sg8
F4.46618833e-06
sg9
F3.9175804e-05
sg10
F0.000957072538
ssS'A377.png'
p867
(dp868
g3
F0.8518658
sg4
F0.140587822
sg5
F8.428048e-05
sg6
F1.00820653e-05
sg7
F3.23207337e-06
sg8
F3.219399e-06
sg9
F0.00134755683
sg10
F0.006097993
ssS'B56.png'
p869
(dp870
g3
F0.436543584
sg4
F0.5384865
sg5
F0.00272764661
sg6
F0.0004623952
sg7
F0.000223560055
sg8
F5.45547773e-05
sg9
F0.0016985921
sg10
F0.0198032074
ssS'A122.png'
p871
(dp872
g3
F2.36864949e-07
sg4
F0.999999762
sg5
F1.17215656e-12
sg6
F1.62401542e-14
sg7
F3.65829936e-12
sg8
F1.17754626e-15
sg9
F6.578536e-14
sg10
F1.940673e-10
ssS'A262.png'
p873
(dp874
g3
F0.1635308
sg4
F0.580441952
sg5
F0.08565537
sg6
F0.00126417179
sg7
F0.000382050755
sg8
F0.0005772977
sg9
F0.0100157652
sg10
F0.1581326
ssS'B4.png'
p875
(dp876
g3
F1.1971843e-10
sg4
F1.0
sg5
F2.292507e-17
sg6
F7.65527171e-19
sg7
F3.06358857e-15
sg8
F2.32153635e-20
sg9
F2.97034535e-19
sg10
F1.55358352e-13
ssS'A073.png'
p877
(dp878
g3
F0.0024567
sg4
F3.31118645e-05
sg5
F9.936777e-05
sg6
F1.96040357e-08
sg7
F2.45668446e-08
sg8
F3.399797e-05
sg9
F0.9972416
sg10
F0.000135171475
ssS'A84.png'
p879
(dp880
g3
F2.99351013e-05
sg4
F5.559183e-10
sg5
F0.00013267067
sg6
F3.70452835e-10
sg7
F2.93753271e-08
sg8
F0.0001775174
sg9
F0.999637961
sg10
F2.18918831e-05
ssS'A036.png'
p881
(dp882
g3
F0.00449512526
sg4
F0.9933016
sg5
F0.0001263791
sg6
F5.033021e-08
sg7
F2.153953e-06
sg8
F1.59440569e-05
sg9
F5.51079429e-05
sg10
F0.00200369116
ssS'A241.png'
p883
(dp884
g3
F0.00109520752
sg4
F0.998800159
sg5
F2.43228842e-05
sg6
F3.42090933e-09
sg7
F6.082959e-08
sg8
F2.35916819e-09
sg9
F1.72335373e-08
sg10
F8.023686e-05
ssS'A70.png'
p885
(dp886
g3
F0.00583953969
sg4
F7.43034252e-05
sg5
F0.000193654778
sg6
F4.004649e-08
sg7
F2.39201626e-07
sg8
F0.000125370352
sg9
F0.993633866
sg10
F0.000132997375
ssS'A205.png'
p887
(dp888
g3
F1.24586819e-09
sg4
F1.0
sg5
F1.18688418e-11
sg6
F4.0096456e-14
sg7
F5.63001319e-14
sg8
F1.07792963e-16
sg9
F4.09172479e-14
sg10
F1.407139e-11
ssS'B2.png'
p889
(dp890
g3
F1.09609474e-10
sg4
F1.0
sg5
F2.494168e-16
sg6
F4.38431533e-18
sg7
F7.289107e-16
sg8
F5.23793317e-20
sg9
F5.94399167e-19
sg10
F9.086133e-14
ssS'A289.png'
p891
(dp892
g3
F0.505412161
sg4
F0.005896212
sg5
F0.06742306
sg6
F0.00739332754
sg7
F0.0005496432
sg8
F0.00373413553
sg9
F0.365711927
sg10
F0.04387955
ssS'A97.png'
p893
(dp894
g3
F0.06604456
sg4
F2.61091077e-06
sg5
F0.00143190264
sg6
F1.85541576e-05
sg7
F2.259207e-05
sg8
F0.00306185684
sg9
F0.928604662
sg10
F0.000813251
ssS'A284.png'
p895
(dp896
g3
F0.631538868
sg4
F0.02648085
sg5
F0.08925465
sg6
F0.00960607
sg7
F0.000366875058
sg8
F0.000543136732
sg9
F0.0517880321
sg10
F0.190421522
ssS'A159.png'
p897
(dp898
g3
F0.6646597
sg4
F0.330128938
sg5
F0.000387656124
sg6
F0.000112761227
sg7
F2.98678115e-05
sg8
F4.62487651e-06
sg9
F0.000533598359
sg10
F0.00414284971
ssS'A232.png'
p899
(dp900
g3
F4.168235e-06
sg4
F0.999994159
sg5
F1.02628924e-07
sg6
F7.18674862e-14
sg7
F2.090916e-11
sg8
F2.21645331e-14
sg9
F5.485529e-12
sg10
F1.59851777e-06
ssS'A312.png'
p901
(dp902
g3
F0.975948155
sg4
F0.00364365685
sg5
F0.000248015451
sg6
F0.00202386966
sg7
F0.0007738241
sg8
F0.000286820257
sg9
F0.0100184847
sg10
F0.007057185
ssS'A26.png'
p903
(dp904
g3
F0.000394267379
sg4
F0.9994934
sg5
F2.202997e-07
sg6
F5.180453e-11
sg7
F2.09647553e-08
sg8
F4.335621e-10
sg9
F1.2061151e-09
sg10
F0.000112091126
ssS'A358.png'
p905
(dp906
g3
F0.734657645
sg4
F0.260808855
sg5
F1.84583459e-05
sg6
F3.73588341e-06
sg7
F1.53847413e-05
sg8
F1.17315622e-05
sg9
F0.00101337174
sg10
F0.00347079313
ssS'A251.png'
p907
(dp908
g3
F0.03166043
sg4
F0.953468561
sg5
F0.002636411
sg6
F1.52289949e-05
sg7
F1.00911639e-05
sg8
F8.657811e-06
sg9
F2.81041666e-05
sg10
F0.012172495
ssS'A009.png'
p909
(dp910
g3
F1.03343655e-06
sg4
F0.9999986
sg5
F5.121495e-11
sg6
F1.3641274e-15
sg7
F6.303696e-14
sg8
F3.17041944e-16
sg9
F4.13758061e-15
sg10
F3.586014e-07
ssS'A72.png'
p911
(dp912
g3
F0.000158298659
sg4
F1.70462243e-07
sg5
F9.97048846e-05
sg6
F2.5881533e-10
sg7
F5.904874e-09
sg8
F3.062059e-05
sg9
F0.9996902
sg10
F2.103124e-05
ssS'A2.png'
p913
(dp914
g3
F5.7712424e-07
sg4
F0.9999994
sg5
F1.37736642e-10
sg6
F8.851135e-14
sg7
F1.12154253e-12
sg8
F1.8496877e-14
sg9
F2.670732e-15
sg10
F3.49105882e-08
ssS'A132.png'
p915
(dp916
g3
F0.000944727333
sg4
F0.9990474
sg5
F2.90009474e-08
sg6
F8.852346e-10
sg7
F1.1393031e-09
sg8
F5.65261856e-12
sg9
F4.811432e-10
sg10
F7.818713e-06
ssS'A181.png'
p917
(dp918
g3
F0.945277631
sg4
F0.00342408125
sg5
F0.000564582646
sg6
F0.000486214471
sg7
F0.000127460371
sg8
F6.0557446e-05
sg9
F0.04581265
sg10
F0.00424681371
ssS'A041.png'
p919
(dp920
g3
F0.0137584656
sg4
F0.973547757
sg5
F0.0008206123
sg6
F7.1644663e-06
sg7
F1.0906705e-05
sg8
F0.00243563857
sg9
F0.00446706032
sg10
F0.00495238137
ssS'A234.png'
p921
(dp922
g3
F2.339748e-05
sg4
F0.9999634
sg5
F1.83675456e-06
sg6
F3.46521336e-12
sg7
F1.15119525e-10
sg8
F2.82350315e-12
sg9
F7.002174e-10
sg10
F1.13562255e-05
ssS'C33.png'
p923
(dp924
g3
F8.62608249e-06
sg4
F0.9999893
sg5
F5.34146466e-07
sg6
F1.359094e-12
sg7
F3.83137029e-11
sg8
F9.74485e-13
sg9
F3.55520585e-10
sg10
F1.57581792e-06
ssS'C35.png'
p925
(dp926
g3
F1.8018929e-05
sg4
F0.9999731
sg5
F1.30722526e-06
sg6
F1.39588406e-12
sg7
F1.57809918e-10
sg8
F1.04628274e-12
sg9
F4.19605767e-10
sg10
F7.55508745e-06
ssS'B66.png'
p927
(dp928
g3
F0.895650864
sg4
F0.09342647
sg5
F0.000179187133
sg6
F0.000248595519
sg7
F6.93502661e-05
sg8
F3.46418674e-05
sg9
F0.006652523
sg10
F0.00373834535
ssS'B69.png'
p929
(dp930
g3
F0.9533298
sg4
F0.0303662661
sg5
F0.0004521873
sg6
F0.000569965632
sg7
F0.000177647074
sg8
F3.356839e-05
sg9
F0.008187074
sg10
F0.006883479
ssS'A257.png'
p931
(dp932
g3
F0.100216694
sg4
F0.831055
sg5
F0.03228151
sg6
F0.001081895
sg7
F0.00020919794
sg8
F0.00103258761
sg9
F0.00359654846
sg10
F0.0305265542
ssS'B27.png'
p933
(dp934
g3
F7.561813e-05
sg4
F0.999924
sg5
F3.26666227e-09
sg6
F3.31853156e-11
sg7
F3.504199e-11
sg8
F2.18066532e-13
sg9
F3.00206041e-11
sg10
F4.01547766e-07
ssS'A049.png'
p935
(dp936
g3
F0.06748251
sg4
F0.23616375
sg5
F0.00305861747
sg6
F7.732621e-06
sg7
F0.000106666776
sg8
F0.0239414368
sg9
F0.662248552
sg10
F0.00699075032
ssS'A187.png'
p937
(dp938
g3
F0.9341713
sg4
F0.000798801659
sg5
F0.000258309563
sg6
F0.000221075825
sg7
F4.553603e-05
sg8
F1.694933e-05
sg9
F0.0631728843
sg10
F0.00131515379
ssS'B1.png'
p939
(dp940
g3
F1.06663178e-09
sg4
F1.0
sg5
F1.23872745e-15
sg6
F4.86842668e-16
sg7
F3.1987234e-12
sg8
F4.11427262e-17
sg9
F5.4934e-17
sg10
F5.323788e-13
ssS'B59.png'
p941
(dp942
g3
F0.6646597
sg4
F0.330128938
sg5
F0.000387656124
sg6
F0.000112761227
sg7
F2.98678115e-05
sg8
F4.62487651e-06
sg9
F0.000533598359
sg10
F0.00414284971
ssS'A014.png'
p943
(dp944
g3
F6.01935244e-06
sg4
F0.9999922
sg5
F2.23369268e-10
sg6
F7.34345242e-14
sg7
F2.75964061e-11
sg8
F1.602654e-14
sg9
F1.44495283e-14
sg10
F1.76961714e-06
ssS'A78.png'
p945
(dp946
g3
F0.00141479773
sg4
F1.265192e-06
sg5
F0.000455798785
sg6
F1.48625059e-08
sg7
F8.017572e-08
sg8
F0.000104876213
sg9
F0.997776031
sg10
F0.000247139455
ssS'B38.png'
p947
(dp948
g3
F0.0187050961
sg4
F0.980977058
sg5
F1.04399705e-05
sg6
F3.175228e-07
sg7
F2.22772016e-07
sg8
F4.916402e-09
sg9
F1.48737641e-07
sg10
F0.0003067315
ssS'C71.png'
p949
(dp950
g3
F0.403585255
sg4
F0.213032663
sg5
F0.107128792
sg6
F0.008373621
sg7
F0.00144291786
sg8
F0.00192253047
sg9
F0.03361852
sg10
F0.230895713
ssS'A101.png'
p951
(dp952
g3
F1.06663178e-09
sg4
F1.0
sg5
F1.23872745e-15
sg6
F4.86842668e-16
sg7
F3.1987234e-12
sg8
F4.11427262e-17
sg9
F5.4934e-17
sg10
F5.323788e-13
ssS'A363.png'
p953
(dp954
g3
F0.7954384
sg4
F0.184666231
sg5
F0.000473369175
sg6
F1.96156852e-05
sg7
F8.810154e-06
sg8
F1.95405155e-05
sg9
F0.00226939353
sg10
F0.0171046611
ssS'C36.png'
p955
(dp956
g3
F0.000158243871
sg4
F0.999771237
sg5
F1.23127611e-05
sg6
F1.008288e-10
sg7
F2.55509813e-09
sg8
F4.69912755e-11
sg9
F8.384174e-09
sg10
F5.819313e-05
ssS'A071.png'
p957
(dp958
g3
F0.00172652071
sg4
F4.03717968e-06
sg5
F7.734342e-05
sg6
F3.06062975e-09
sg7
F5.42594449e-08
sg8
F6.347963e-05
sg9
F0.998075068
sg10
F5.351315e-05
ssS'A197.png'
p959
(dp960
g3
F0.8903113
sg4
F0.00239304756
sg5
F0.0003265234
sg6
F0.0008720005
sg7
F0.000129537162
sg8
F4.572334e-05
sg9
F0.101271309
sg10
F0.00465055648
ssS'A238.png'
p961
(dp962
g3
F0.000130936955
sg4
F0.9998373
sg5
F4.427069e-06
sg6
F4.62525643e-11
sg7
F3.08051229e-09
sg8
F3.18148528e-11
sg9
F1.77701753e-09
sg10
F2.73771766e-05
ssS'A314.png'
p963
(dp964
g3
F0.9680801
sg4
F0.0017875483
sg5
F0.000306694332
sg6
F0.00260847341
sg7
F0.000248849916
sg8
F0.000128015381
sg9
F0.0198182426
sg10
F0.00702208746
ssS'A087.png'
p965
(dp966
g3
F0.0007168243
sg4
F7.441704e-08
sg5
F0.000163814329
sg6
F6.078629e-09
sg7
F1.163909e-07
sg8
F0.000103995335
sg9
F0.9989391
sg10
F7.608287e-05
ssS'A387.png'
p967
(dp968
g3
F0.9361406
sg4
F0.0626286939
sg5
F9.294605e-07
sg6
F2.270887e-07
sg7
F6.087879e-08
sg8
F1.4205699e-07
sg9
F0.000454414
sg10
F0.0007749654
ssS'A016.png'
p969
(dp970
g3
F3.132003e-05
sg4
F0.999955356
sg5
F2.66318718e-08
sg6
F8.655891e-12
sg7
F3.77893022e-10
sg8
F1.57681281e-11
sg9
F3.39614122e-12
sg10
F1.327216e-05
ssS'C24.png'
p971
(dp972
g3
F1.38494016e-07
sg4
F0.9999998
sg5
F7.30288052e-09
sg6
F9.090426e-15
sg7
F1.365703e-13
sg8
F1.95290688e-15
sg9
F2.36830022e-12
sg10
F1.84725444e-08
ssS'A242.png'
p973
(dp974
g3
F0.0004704132
sg4
F0.9994322
sg5
F6.505522e-06
sg6
F3.39987538e-10
sg7
F2.287487e-08
sg8
F1.05487279e-10
sg9
F1.46878754e-09
sg10
F9.083164e-05
ssS'A107.png'
p975
(dp976
g3
F1.22846322e-09
sg4
F1.0
sg5
F9.084669e-16
sg6
F3.234014e-17
sg7
F3.51938429e-14
sg8
F1.00919581e-18
sg9
F1.17427073e-17
sg10
F2.47616077e-12
ssS'C5.png'
p977
(dp978
g3
F1.24586819e-09
sg4
F1.0
sg5
F1.18688418e-11
sg6
F4.0096456e-14
sg7
F5.63001319e-14
sg8
F1.07792963e-16
sg9
F4.09172479e-14
sg10
F1.407139e-11
ssS'A077.png'
p979
(dp980
g3
F5.88623625e-05
sg4
F8.480917e-09
sg5
F0.000219182126
sg6
F5.113063e-10
sg7
F2.2659691e-08
sg8
F0.000197732239
sg9
F0.9994986
sg10
F2.55878549e-05
ssS'A152.png'
p981
(dp982
g3
F0.184288442
sg4
F0.809148848
sg5
F0.0004407452
sg6
F3.502704e-05
sg7
F1.79507642e-05
sg8
F1.91250342e-06
sg9
F6.00496242e-05
sg10
F0.00600703061
ssS'A333.png'
p983
(dp984
g3
F0.9674443
sg4
F0.0131495008
sg5
F0.0003060361
sg6
F0.00175957161
sg7
F0.000315106969
sg8
F5.32343765e-05
sg9
F0.00205138
sg10
F0.0149208838
ssS'A136.png'
p985
(dp986
g3
F0.00326135429
sg4
F0.99668473
sg5
F6.355057e-07
sg6
F9.141608e-09
sg7
F3.012996e-09
sg8
F2.88428934e-11
sg9
F2.10929985e-09
sg10
F5.327933e-05
ssS'A347.png'
p987
(dp988
g3
F0.972101331
sg4
F0.0172630381
sg5
F0.00024352633
sg6
F0.000322745531
sg7
F0.000456423819
sg8
F0.00013232042
sg9
F0.0036114722
sg10
F0.00586912455
ssS'A160.png'
p989
(dp990
g3
F0.687691033
sg4
F0.309722543
sg5
F7.639374e-05
sg6
F4.31756e-05
sg7
F3.16011847e-06
sg8
F5.79762968e-07
sg9
F0.000624936656
sg10
F0.00183817872
ssS'A215.png'
p991
(dp992
g3
F1.35318331e-07
sg4
F0.9999998
sg5
F2.00127079e-08
sg6
F8.050332e-13
sg7
F3.38409682e-12
sg8
F6.402878e-13
sg9
F5.28720054e-11
sg10
F7.37480033e-09
ssS'B46.png'
p993
(dp994
g3
F0.0769677162
sg4
F0.9204572
sg5
F0.000158913521
sg6
F1.74111665e-05
sg7
F7.886978e-06
sg8
F7.674002e-07
sg9
F1.25676115e-05
sg10
F0.00237754919
ssS'A108.png'
p995
(dp996
g3
F4.16920765e-09
sg4
F1.0
sg5
F1.18051109e-14
sg6
F1.10189828e-15
sg7
F3.86618878e-13
sg8
F1.87206881e-16
sg9
F7.53783567e-16
sg10
F4.567057e-12
ssS'B51.png'
p997
(dp998
g3
F0.211332425
sg4
F0.7767938
sg5
F0.00174201909
sg6
F0.000315150683
sg7
F0.000165597972
sg8
F3.445759e-05
sg9
F0.000248322816
sg10
F0.009368223
ssS'B86.png'
p999
(dp1000
g3
F0.942873
sg4
F0.00117146038
sg5
F0.000351477967
sg6
F0.0002538186
sg7
F7.943944e-05
sg8
F3.04267469e-05
sg9
F0.0534803942
sg10
F0.00175996614
ssS'A56.png'
p1001
(dp1002
g3
F0.111048885
sg4
F0.0872570053
sg5
F0.000840488647
sg6
F2.74488275e-06
sg7
F4.892828e-05
sg8
F0.0106211714
sg9
F0.787313759
sg10
F0.00286702579
ssS'A201.png'
p1003
(dp1004
g3
F3.91654842e-09
sg4
F1.0
sg5
F2.46532433e-10
sg6
F7.584751e-12
sg7
F4.33414242e-12
sg8
F1.529224e-12
sg9
F6.04404677e-12
sg10
F8.821251e-12
ssS'A307.png'
p1005
(dp1006
g3
F0.9701972
sg4
F0.004467478
sg5
F0.000130315078
sg6
F0.0015458049
sg7
F0.0005644177
sg8
F0.000131340668
sg9
F0.0178155117
sg10
F0.00514793349
ssS'B44.png'
p1007
(dp1008
g3
F0.02127074
sg4
F0.978249252
sg5
F1.77407419e-05
sg6
F8.68597851e-07
sg7
F3.6492392e-07
sg8
F1.0837403e-08
sg9
F4.513331e-07
sg10
F0.00046056576
ssS'A15.png'
p1009
(dp1010
g3
F2.582128e-06
sg4
F0.9999971
sg5
F1.66982886e-11
sg6
F2.84120558e-15
sg7
F1.6237401e-12
sg8
F9.810108e-16
sg9
F3.88741028e-15
sg10
F3.458828e-07
ssS'A380.png'
p1011
(dp1012
g3
F0.9583393
sg4
F0.0394929647
sg5
F1.55708676e-05
sg6
F3.266858e-06
sg7
F1.13805038e-06
sg8
F1.80645452e-06
sg9
F0.0006593567
sg10
F0.00148660608
ssS'A255.png'
p1013
(dp1014
g3
F0.07624557
sg4
F0.83046484
sg5
F0.0404206775
sg6
F0.000617752259
sg7
F0.000147215673
sg8
F0.0005254809
sg9
F0.00267477822
sg10
F0.0489037074
ssS'C89.png'
p1015
(dp1016
g3
F0.505412161
sg4
F0.005896212
sg5
F0.06742306
sg6
F0.00739332754
sg7
F0.0005496432
sg8
F0.00373413553
sg9
F0.365711927
sg10
F0.04387955
ssS'B92.png'
p1017
(dp1018
g3
F0.924904346
sg4
F0.00177091837
sg5
F0.000405387924
sg6
F0.000569726
sg7
F0.000141681638
sg8
F6.331478e-05
sg9
F0.07044288
sg10
F0.00170174753
ssS'A270.png'
p1019
(dp1020
g3
F0.3239085
sg4
F0.317630231
sg5
F0.108553663
sg6
F0.007734164
sg7
F0.00123688683
sg8
F0.00258277333
sg9
F0.0432339944
sg10
F0.1951198
ssS'A264.png'
p1021
(dp1022
g3
F0.142793879
sg4
F0.5987059
sg5
F0.107487254
sg6
F0.00212572212
sg7
F0.0008206479
sg8
F0.00210256618
sg9
F0.0258059949
sg10
F0.120158076
ssS'A203.png'
p1023
(dp1024
g3
F6.22849439e-10
sg4
F1.0
sg5
F1.05608777e-11
sg6
F1.38595624e-13
sg7
F5.169387e-14
sg8
F2.96579989e-15
sg9
F3.6853858e-14
sg10
F2.40228562e-12
ssS'A085.png'
p1025
(dp1026
g3
F0.000130302622
sg4
F2.14565272e-08
sg5
F2.68818767e-05
sg6
F1.619561e-09
sg7
F4.545603e-09
sg8
F8.542582e-06
sg9
F0.9998065
sg10
F2.7738266e-05
ssS'A220.png'
p1027
(dp1028
g3
F6.625501e-08
sg4
F0.9999999
sg5
F2.80125234e-09
sg6
F4.53635373e-14
sg7
F5.34327845e-13
sg8
F3.011529e-14
sg9
F5.450019e-12
sg10
F2.61674913e-08
ssS'A302.png'
p1029
(dp1030
g3
F0.990271032
sg4
F0.00161207432
sg5
F8.443093e-06
sg6
F0.000439385418
sg7
F0.0001086303
sg8
F1.275038e-05
sg9
F0.005700396
sg10
F0.00184731837
ssS'A021.png'
p1031
(dp1032
g3
F0.000161658041
sg4
F0.9998082
sg5
F1.07741549e-07
sg6
F2.36358814e-11
sg7
F1.69761289e-08
sg8
F3.33037375e-10
sg9
F1.21448282e-10
sg10
F2.99958156e-05
ssS'A37.png'
p1033
(dp1034
g3
F0.005268555
sg4
F0.99273777
sg5
F7.94253e-05
sg6
F5.600231e-08
sg7
F2.06643e-06
sg8
F1.52384182e-05
sg9
F2.21416358e-05
sg10
F0.001874742
ssS'C70.png'
p1035
(dp1036
g3
F0.3239085
sg4
F0.317630231
sg5
F0.108553663
sg6
F0.007734164
sg7
F0.00123688683
sg8
F0.00258277333
sg9
F0.0432339944
sg10
F0.1951198
ssS'A12.png'
p1037
(dp1038
g3
F3.57606086e-06
sg4
F0.9999958
sg5
F1.83657312e-09
sg6
F3.37021968e-13
sg7
F1.48893554e-11
sg8
F1.16251128e-12
sg9
F8.86482253e-14
sg10
F6.050796e-07
ssS'C62.png'
p1039
(dp1040
g3
F0.1635308
sg4
F0.580441952
sg5
F0.08565537
sg6
F0.00126417179
sg7
F0.000382050755
sg8
F0.0005772977
sg9
F0.0100157652
sg10
F0.1581326
ssS'A300.png'
p1041
(dp1042
g3
F0.717521
sg4
F0.005288166
sg5
F0.02978859
sg6
F0.0129406154
sg7
F0.000254081417
sg8
F0.0006500533
sg9
F0.199817926
sg10
F0.03373954
ssS'C37.png'
p1043
(dp1044
g3
F0.000134193047
sg4
F0.9997997
sg5
F1.33158328e-05
sg6
F2.251766e-10
sg7
F2.40711873e-09
sg8
F1.72660747e-10
sg9
F1.54825983e-08
sg10
F5.27509947e-05
ssS'A385.png'
p1045
(dp1046
g3
F0.9183809
sg4
F0.07864739
sg5
F5.12903762e-06
sg6
F6.53498432e-07
sg7
F4.51464871e-07
sg8
F1.41618557e-06
sg9
F0.0018324838
sg10
F0.00113156473
ssS'A278.png'
p1047
(dp1048
g3
F0.522904754
sg4
F0.07960357
sg5
F0.134164467
sg6
F0.0114112841
sg7
F0.0008605925
sg8
F0.00190774084
sg9
F0.0832277
sg10
F0.16591987
ssS'C43.png'
p1049
(dp1050
g3
F0.000741535
sg4
F0.9986208
sg5
F0.000131186622
sg6
F4.365355e-09
sg7
F4.83488662e-08
sg8
F7.711165e-09
sg9
F2.774114e-07
sg10
F0.0005061152
ssS'B36.png'
p1051
(dp1052
g3
F0.00326135429
sg4
F0.99668473
sg5
F6.355057e-07
sg6
F9.141608e-09
sg7
F3.012996e-09
sg8
F2.88428934e-11
sg9
F2.10929985e-09
sg10
F5.327933e-05
ssS'B18.png'
p1053
(dp1054
g3
F8.82123459e-08
sg4
F0.99999994
sg5
F3.939047e-12
sg6
F1.02830579e-14
sg7
F1.155023e-13
sg8
F1.42651651e-16
sg9
F9.0251225e-15
sg10
F7.249668e-10
ssS'C2.png'
p1055
(dp1056
g3
F1.16358772e-08
sg4
F1.0
sg5
F2.030081e-09
sg6
F4.86630354e-11
sg7
F4.67732363e-12
sg8
F2.77084215e-12
sg9
F5.79024e-12
sg10
F9.510185e-11
ssS'B6.png'
p1057
(dp1058
g3
F2.059503e-09
sg4
F1.0
sg5
F4.88869555e-15
sg6
F1.2795403e-17
sg7
F4.097205e-15
sg8
F7.56691835e-20
sg9
F4.38311137e-18
sg10
F8.724801e-12
ssS'A120.png'
p1059
(dp1060
g3
F7.184756e-07
sg4
F0.9999993
sg5
F4.42330166e-11
sg6
F9.02453635e-14
sg7
F6.46765736e-13
sg8
F1.015592e-15
sg9
F1.38706063e-13
sg10
F7.711198e-09
ssS'A6.png'
p1061
(dp1062
g3
F2.11154784e-07
sg4
F0.999999762
sg5
F8.728528e-12
sg6
F3.30606467e-15
sg7
F1.62523708e-13
sg8
F6.3306136e-16
sg9
F1.803086e-16
sg10
F1.99669543e-08
ssS'A58.png'
p1063
(dp1064
g3
F0.009426209
sg4
F0.007717948
sg5
F0.0006973685
sg6
F1.44266366e-07
sg7
F4.29994952e-06
sg8
F0.00354636274
sg9
F0.97741425
sg10
F0.00119344215
ssS'A171.png'
p1065
(dp1066
g3
F0.96918416
sg4
F0.0144920954
sg5
F0.000248590484
sg6
F0.0003453194
sg7
F0.000134712085
sg8
F2.544991e-05
sg9
F0.0114457076
sg10
F0.00412394945
ssS'A217.png'
p1067
(dp1068
g3
F4.83898823e-08
sg4
F0.99999994
sg5
F1.27496058e-09
sg6
F1.269939e-13
sg7
F7.332904e-13
sg8
F5.41253376e-14
sg9
F3.0135993e-13
sg10
F1.99512629e-09
ssS'C57.png'
p1069
(dp1070
g3
F0.100216694
sg4
F0.831055
sg5
F0.03228151
sg6
F0.001081895
sg7
F0.00020919794
sg8
F0.00103258761
sg9
F0.00359654846
sg10
F0.0305265542
ssS'A27.png'
p1071
(dp1072
g3
F9.461585e-05
sg4
F0.999859333
sg5
F1.12430961e-07
sg6
F1.04259058e-11
sg7
F1.06218661e-08
sg8
F1.85794616e-10
sg9
F1.35168071e-10
sg10
F4.59401926e-05
ssS'A330.png'
p1073
(dp1074
g3
F0.9708695
sg4
F0.0208195336
sg5
F2.80433942e-05
sg6
F0.000348776957
sg7
F1.16082156e-05
sg8
F5.183738e-06
sg9
F0.000444704376
sg10
F0.00747265667
ssS'A87.png'
p1075
(dp1076
g3
F0.00185662648
sg4
F1.27936588e-07
sg5
F0.0002806184
sg6
F1.99807531e-07
sg7
F2.37080073e-07
sg8
F0.000128054948
sg9
F0.9975251
sg10
F0.0002090309
ssS'B83.png'
p1077
(dp1078
g3
F0.9029839
sg4
F0.00377450651
sg5
F0.00100461079
sg6
F0.00064346
sg7
F0.000100899633
sg8
F7.088189e-05
sg9
F0.08759264
sg10
F0.00382908643
ssS'A116.png'
p1079
(dp1080
g3
F1.71350322e-07
sg4
F0.9999998
sg5
F3.08357159e-12
sg6
F4.800803e-14
sg7
F3.05824485e-12
sg8
F2.50247922e-15
sg9
F2.916036e-14
sg10
F1.49610557e-09
ssS'A066.png'
p1081
(dp1082
g3
F0.000143720114
sg4
F7.674047e-07
sg5
F0.000610174437
sg6
F2.750999e-09
sg7
F5.32998925e-08
sg8
F0.000220616552
sg9
F0.998923063
sg10
F0.000101627476
ssS'A8.png'
p1083
(dp1084
g3
F1.88149613e-06
sg4
F0.999997854
sg5
F7.65386e-10
sg6
F4.738245e-13
sg7
F8.421646e-12
sg8
F2.99243459e-13
sg9
F1.22614939e-14
sg10
F2.45368881e-07
ssS'A177.png'
p1085
(dp1086
g3
F0.980876565
sg4
F0.00471608248
sg5
F0.0003227246
sg6
F0.000305698748
sg7
F0.000182374366
sg8
F3.5307643e-05
sg9
F0.0111789731
sg10
F0.00238228915
ssS'A282.png'
p1087
(dp1088
g3
F0.559812
sg4
F0.0634868443
sg5
F0.08067087
sg6
F0.008268586
sg7
F0.000665397267
sg8
F0.00105560187
sg9
F0.0566719659
sg10
F0.229368731
ssS'A17.png'
p1089
(dp1090
g3
F7.512596e-05
sg4
F0.999905765
sg5
F2.44078482e-08
sg6
F7.097173e-12
sg7
F2.21312035e-09
sg8
F2.47093734e-11
sg9
F1.55843047e-11
sg10
F1.90692335e-05
ssS'A378.png'
p1091
(dp1092
g3
F0.952717662
sg4
F0.04577076
sg5
F4.911422e-06
sg6
F2.947397e-06
sg7
F6.28989369e-07
sg8
F9.064602e-07
sg9
F0.0004224388
sg10
F0.00107973162
ssS'A050.png'
p1093
(dp1094
g3
F0.0747303
sg4
F0.305232555
sg5
F0.004741201
sg6
F1.32221221e-05
sg7
F6.275676e-05
sg8
F0.0162339
sg9
F0.5899069
sg10
F0.009079164
ssS'C51.png'
p1095
(dp1096
g3
F0.03166043
sg4
F0.953468561
sg5
F0.002636411
sg6
F1.52289949e-05
sg7
F1.00911639e-05
sg8
F8.657811e-06
sg9
F2.81041666e-05
sg10
F0.012172495
ssS'A89.png'
p1097
(dp1098
g3
F0.0019402965
sg4
F1.44766247e-07
sg5
F0.000121105579
sg6
F3.79763136e-08
sg7
F9.293228e-09
sg8
F6.214437e-06
sg9
F0.997828543
sg10
F0.000103655475
ssS'B25.png'
p1099
(dp1100
g3
F6.433268e-06
sg4
F0.9999935
sg5
F3.49324625e-10
sg6
F3.39576376e-13
sg7
F5.181382e-12
sg8
F4.530788e-15
sg9
F9.765582e-13
sg10
F3.834302e-08
ssS'A110.png'
p1101
(dp1102
g3
F5.860648e-09
sg4
F1.0
sg5
F2.22944167e-13
sg6
F1.3441388e-15
sg7
F2.54309323e-13
sg8
F3.01283465e-17
sg9
F1.82910015e-16
sg10
F3.13264657e-11
ssS'B90.png'
p1103
(dp1104
g3
F0.9251979
sg4
F0.00075498654
sg5
F0.000308583141
sg6
F0.000336886
sg7
F5.64871e-05
sg8
F2.72000125e-05
sg9
F0.0717413
sg10
F0.00157667254
ssS'B84.png'
p1105
(dp1106
g3
F0.952623
sg4
F0.00215209345
sg5
F0.00053926697
sg6
F0.000473465974
sg7
F0.000117329262
sg8
F5.40091241e-05
sg9
F0.0387615375
sg10
F0.00527928863
ssS'A060.png'
p1107
(dp1108
g3
F0.00534620555
sg4
F0.000288595853
sg5
F0.00115436909
sg6
F1.74790074e-07
sg7
F1.57683428e-06
sg8
F0.002896117
sg9
F0.989193439
sg10
F0.00111952319
ssS'A46.png'
p1109
(dp1110
g3
F0.03623557
sg4
F0.444775015
sg5
F0.00492735347
sg6
F1.37171655e-05
sg7
F1.98021353e-05
sg8
F0.00946062151
sg9
F0.498203278
sg10
F0.006364646
ssS'A309.png'
p1111
(dp1112
g3
F0.9730271
sg4
F0.01062664
sg5
F0.000151258573
sg6
F0.000619101746
sg7
F0.0001275687
sg8
F8.142064e-05
sg9
F0.0108499229
sg10
F0.004516972
ssS'A051.png'
p1113
(dp1114
g3
F0.119391754
sg4
F0.3378799
sg5
F0.00266253087
sg6
F1.40904631e-05
sg7
F0.000134913571
sg8
F0.028839428
sg9
F0.5030566
sg10
F0.00802081
ssS'A92.png'
p1115
(dp1116
g3
F0.0233762711
sg4
F7.018159e-07
sg5
F0.00119959889
sg6
F6.69470865e-06
sg7
F4.720434e-06
sg8
F0.000778025365
sg9
F0.973920763
sg10
F0.0007132185
ssS'A65.png'
p1117
(dp1118
g3
F0.00074143894
sg4
F5.18546e-06
sg5
F0.000216364482
sg6
F8.287562e-09
sg7
F3.27470744e-08
sg8
F5.768847e-05
sg9
F0.998872459
sg10
F0.000106849046
ssS'C6.png'
p1119
(dp1120
g3
F2.56515822e-08
sg4
F1.0
sg5
F1.93974925e-09
sg6
F1.870959e-12
sg7
F5.245953e-12
sg8
F2.82722657e-13
sg9
F1.41778585e-11
sg10
F2.30944708e-10
ssS'A28.png'
p1121
(dp1122
g3
F0.000884657551
sg4
F0.998675048
sg5
F1.53050348e-06
sg6
F5.5540933e-10
sg7
F9.35441946e-08
sg8
F4.15995238e-09
sg9
F3.08010217e-09
sg10
F0.000438682968
ssS'A035.png'
p1123
(dp1124
g3
F0.002042454
sg4
F0.997554243
sg5
F9.37234654e-06
sg6
F8.35384262e-10
sg7
F1.660253e-07
sg8
F1.531657e-07
sg9
F1.32035643e-06
sg10
F0.000392285438
ssS'A392.png'
p1125
(dp1126
g3
F0.7211816
sg4
F0.274856836
sg5
F2.56291969e-05
sg6
F1.19028491e-05
sg7
F2.360613e-05
sg8
F1.78829869e-05
sg9
F0.00161509577
sg10
F0.00226745964
ssS'C97.png'
p1127
(dp1128
g3
F0.8156018
sg4
F0.00148316682
sg5
F0.009912322
sg6
F0.0135440547
sg7
F0.000318084582
sg8
F0.000201515417
sg9
F0.122353986
sg10
F0.03658503
ssS'A67.png'
p1129
(dp1130
g3
F0.000285569346
sg4
F2.434722e-06
sg5
F0.00014065273
sg6
F2.18032881e-09
sg7
F3.99140738e-08
sg8
F0.000102283033
sg9
F0.999399662
sg10
F6.934585e-05
ssS'A254.png'
p1131
(dp1132
g3
F0.08334515
sg4
F0.8688368
sg5
F0.0123077454
sg6
F0.000209608712
sg7
F8.15331441e-05
sg8
F8.926373e-05
sg9
F0.000325808331
sg10
F0.0348040834
ssS'A244.png'
p1133
(dp1134
g3
F0.006857213
sg4
F0.990969837
sg5
F0.0007039977
sg6
F1.10684516e-06
sg7
F2.31360536e-06
sg8
F3.32587575e-07
sg9
F7.77151456e-07
sg10
F0.00146443886
ssS'A19.png'
p1135
(dp1136
g3
F1.59607753e-05
sg4
F0.9999804
sg5
F2.17456231e-09
sg6
F7.23026565e-13
sg7
F1.54469715e-10
sg8
F1.21031516e-12
sg9
F3.185921e-13
sg10
F3.65829533e-06
ssS'A274.png'
p1137
(dp1138
g3
F0.439299464
sg4
F0.216829628
sg5
F0.08128599
sg6
F0.00533751631
sg7
F0.0009332113
sg8
F0.00119692623
sg9
F0.0322428942
sg10
F0.222874358
ssS'A211.png'
p1139
(dp1140
g3
F1.52115742e-08
sg4
F1.0
sg5
F7.653555e-10
sg6
F7.57913643e-13
sg7
F2.06571587e-12
sg8
F2.08865409e-13
sg9
F1.43452568e-11
sg10
F5.304254e-10
ssS'A316.png'
p1141
(dp1142
g3
F0.982355654
sg4
F0.0017737553
sg5
F0.000114114882
sg6
F0.001586237
sg7
F0.0006508687
sg8
F0.000123986349
sg9
F0.00769834872
sg10
F0.00569705851
ssS'B100.png'
p1143
(dp1144
g3
F0.8866209
sg4
F0.00176712032
sg5
F0.0002513059
sg6
F0.0005950626
sg7
F0.000132064422
sg8
F5.2752086e-05
sg9
F0.108780913
sg10
F0.00179987145
ssS'C68.png'
p1145
(dp1146
g3
F0.259679884
sg4
F0.488518864
sg5
F0.0706563
sg6
F0.00415965728
sg7
F0.0007262736
sg8
F0.000837526866
sg9
F0.009645388
sg10
F0.1657761
ssS'B91.png'
p1147
(dp1148
g3
F0.8900673
sg4
F0.00116075075
sg5
F0.000325347384
sg6
F0.000457942573
sg7
F0.000102688391
sg8
F6.394141e-05
sg9
F0.106269829
sg10
F0.00155222253
ssS'A393.png'
p1149
(dp1150
g3
F0.91572535
sg4
F0.08124533
sg5
F5.073401e-06
sg6
F2.54512724e-06
sg7
F3.39444659e-06
sg8
F3.71131955e-06
sg9
F0.0008245325
sg10
F0.00219007232
ssS'A39.png'
p1151
(dp1152
g3
F0.01755208
sg4
F0.9750226
sg5
F0.000312471122
sg6
F4.42405081e-07
sg7
F7.670484e-06
sg8
F0.0002511432
sg9
F0.002477388
sg10
F0.004376189
ssS'B53.png'
p1153
(dp1154
g3
F0.35008502
sg4
F0.6449749
sg5
F0.000346704153
sg6
F5.27372358e-05
sg7
F1.746199e-05
sg8
F5.114118e-06
sg9
F0.000280801178
sg10
F0.004237261
ssS'B67.png'
p1155
(dp1156
g3
F0.9074169
sg4
F0.081622906
sg5
F0.000198322086
sg6
F0.0003072985
sg7
F5.586819e-05
sg8
F1.44566729e-05
sg9
F0.006086748
sg10
F0.00429750374
ssS'A388.png'
p1157
(dp1158
g3
F0.8248017
sg4
F0.172148123
sg5
F5.31453043e-06
sg6
F1.12093e-06
sg7
F3.182651e-07
sg8
F5.91148535e-07
sg9
F0.0006534136
sg10
F0.00238943123
ssS'A276.png'
p1159
(dp1160
g3
F0.4293886
sg4
F0.127153173
sg5
F0.12153028
sg6
F0.0102871014
sg7
F0.0008241332
sg8
F0.00113974791
sg9
F0.02986433
sg10
F0.279812634
ssS'A127.png'
p1161
(dp1162
g3
F7.561813e-05
sg4
F0.999924
sg5
F3.26666227e-09
sg6
F3.31853156e-11
sg7
F3.504199e-11
sg8
F2.18066532e-13
sg9
F3.00206041e-11
sg10
F4.01547766e-07
ssS'A093.png'
p1163
(dp1164
g3
F0.0120805446
sg4
F5.598421e-07
sg5
F0.000265183975
sg6
F7.26113569e-07
sg7
F2.60519641e-07
sg8
F0.000145191632
sg9
F0.9871304
sg10
F0.000377105927
ssS'C87.png'
p1165
(dp1166
g3
F0.715600252
sg4
F0.0100351591
sg5
F0.0724446848
sg6
F0.0118677905
sg7
F0.000199648144
sg8
F0.000134280519
sg9
F0.0339979157
sg10
F0.155720249
ssS'C27.png'
p1167
(dp1168
g3
F9.667026e-07
sg4
F0.9999979
sg5
F9.819704e-08
sg6
F2.23517544e-14
sg7
F2.23323443e-12
sg8
F1.63128923e-14
sg9
F1.6098468e-11
sg10
F1.03000389e-06
ssS'A104.png'
p1169
(dp1170
g3
F1.1971843e-10
sg4
F1.0
sg5
F2.292507e-17
sg6
F7.65527171e-19
sg7
F3.06358857e-15
sg8
F2.32153635e-20
sg9
F2.97034535e-19
sg10
F1.55358352e-13
ssS'C67.png'
p1171
(dp1172
g3
F0.225707307
sg4
F0.487031251
sg5
F0.10739214
sg6
F0.002635197
sg7
F0.00115790486
sg8
F0.00399988936
sg9
F0.0495259278
sg10
F0.122550383
ssS'A253.png'
p1173
(dp1174
g3
F0.0477072559
sg4
F0.9262323
sg5
F0.00488542253
sg6
F2.0327032e-05
sg7
F3.4295932e-05
sg8
F7.58401757e-06
sg9
F5.92561337e-05
sg10
F0.0210535936
ssS'B23.png'
p1175
(dp1176
g3
F2.51137863e-06
sg4
F0.9999975
sg5
F9.25441737e-11
sg6
F2.8662695e-13
sg7
F2.61043639e-12
sg8
F1.946068e-15
sg9
F1.99591659e-13
sg10
F1.73561556e-08
ssS'A337.png'
p1177
(dp1178
g3
F0.988711238
sg4
F0.00820715353
sg5
F7.719107e-06
sg6
F4.024807e-05
sg7
F8.883015e-05
sg8
F1.10089832e-05
sg9
F0.000236141044
sg10
F0.00269763987
ssS'B76.png'
p1179
(dp1180
g3
F0.9662157
sg4
F0.005402289
sg5
F0.000473234
sg6
F0.0002809761
sg7
F0.000103982282
sg8
F2.51306665e-05
sg9
F0.0250275973
sg10
F0.00247103744
ssS'A124.png'
p1181
(dp1182
g3
F2.16959074e-06
sg4
F0.9999978
sg5
F1.00143574e-10
sg6
F4.56431e-13
sg7
F6.71585877e-12
sg8
F4.414403e-15
sg9
F2.27690615e-13
sg10
F7.30478833e-09
ssS'A224.png'
p1183
(dp1184
g3
F1.38494016e-07
sg4
F0.9999998
sg5
F7.30288052e-09
sg6
F9.090426e-15
sg7
F1.365703e-13
sg8
F1.95290688e-15
sg9
F2.36830022e-12
sg10
F1.84725444e-08
ssS'A198.png'
p1185
(dp1186
g3
F0.7651611
sg4
F0.00115884619
sg5
F0.0003726841
sg6
F0.0006674155
sg7
F9.707722e-05
sg8
F9.413409e-05
sg9
F0.228494912
sg10
F0.00395385548
ssS'A280.png'
p1187
(dp1188
g3
F0.5759156
sg4
F0.09912488
sg5
F0.0606323779
sg6
F0.00392049458
sg7
F0.000691127963
sg8
F0.0005144959
sg9
F0.0226951577
sg10
F0.2365059
ssS'A313.png'
p1189
(dp1190
g3
F0.9855055
sg4
F0.003795225
sg5
F6.9879934e-05
sg6
F0.00122983765
sg7
F0.000263827736
sg8
F8.344428e-05
sg9
F0.005447297
sg10
F0.003604951
ssS'A52.png'
p1191
(dp1192
g3
F0.07188115
sg4
F0.1666307
sg5
F0.00176903931
sg6
F2.54099245e-06
sg7
F9.049972e-05
sg8
F0.014832085
sg9
F0.7396453
sg10
F0.005148652
ssS'C53.png'
p1193
(dp1194
g3
F0.0477072559
sg4
F0.9262323
sg5
F0.00488542253
sg6
F2.0327032e-05
sg7
F3.4295932e-05
sg8
F7.58401757e-06
sg9
F5.92561337e-05
sg10
F0.0210535936
ssS'A112.png'
p1195
(dp1196
g3
F8.659891e-09
sg4
F1.0
sg5
F3.533484e-13
sg6
F2.53159174e-15
sg7
F1.041404e-14
sg8
F3.111913e-17
sg9
F2.28095131e-15
sg10
F2.21927858e-11
ssS'C14.png'
p1197
(dp1198
g3
F2.998757e-07
sg4
F0.999999642
sg5
F2.88629618e-08
sg6
F2.31122435e-12
sg7
F7.465905e-12
sg8
F9.765009e-13
sg9
F1.438509e-11
sg10
F8.51461e-09
ssS'A63.png'
p1199
(dp1200
g3
F0.00343798031
sg4
F5.82446228e-05
sg5
F5.77453029e-05
sg6
F7.992026e-09
sg7
F1.55966219e-07
sg8
F0.000427899242
sg9
F0.995914757
sg10
F0.000103227823
ssS'A3.png'
p1201
(dp1202
g3
F2.89825e-06
sg4
F0.9999965
sg5
F2.14074469e-09
sg6
F1.176632e-13
sg7
F1.34379842e-11
sg8
F2.57883938e-13
sg9
F6.902303e-14
sg10
F6.06182e-07
ssS'A133.png'
p1203
(dp1204
g3
F0.0007387062
sg4
F0.9992517
sg5
F7.314589e-08
sg6
F7.96186228e-10
sg7
F1.27881739e-09
sg8
F7.10222332e-12
sg9
F3.262012e-10
sg10
F9.490123e-06
ssS'A089.png'
p1205
(dp1206
g3
F0.0005547641
sg4
F9.702833e-09
sg5
F0.0007029642
sg6
F1.58110147e-08
sg7
F1.19204081e-07
sg8
F8.172866e-05
sg9
F0.998263657
sg10
F0.000396756455
ssS'C52.png'
p1207
(dp1208
g3
F0.02142277
sg4
F0.9457241
sg5
F0.0115156369
sg6
F2.71024237e-05
sg7
F1.47692663e-05
sg8
F1.85258e-05
sg9
F0.000152418215
sg10
F0.02112466
ssS'A145.png'
p1209
(dp1210
g3
F0.0255792458
sg4
F0.9740105
sg5
F4.3448752e-05
sg6
F6.760111e-07
sg7
F3.08586777e-07
sg8
F1.14271721e-08
sg9
F4.931372e-07
sg10
F0.000365277083
ssS'A221.png'
p1211
(dp1212
g3
F6.98086e-08
sg4
F0.99999994
sg5
F1.968643e-09
sg6
F8.866072e-15
sg7
F2.87234022e-13
sg8
F3.643573e-15
sg9
F7.14134643e-13
sg10
F5.61246472e-09
ssS'A327.png'
p1213
(dp1214
g3
F0.973818064
sg4
F0.0104290163
sg5
F0.0002782506
sg6
F0.000802541443
sg7
F0.000177349575
sg8
F4.56185153e-05
sg9
F0.00161206664
sg10
F0.0128370877
ssS'A16.png'
p1215
(dp1216
g3
F2.83832633e-05
sg4
F0.9999622
sg5
F2.27027428e-08
sg6
F1.5515542e-11
sg7
F2.97502079e-10
sg8
F1.785651e-11
sg9
F1.56461747e-12
sg10
F9.360307e-06
ssS'C78.png'
p1217
(dp1218
g3
F0.522904754
sg4
F0.07960357
sg5
F0.134164467
sg6
F0.0114112841
sg7
F0.0008605925
sg8
F0.00190774084
sg9
F0.0832277
sg10
F0.16591987
ssS'A379.png'
p1219
(dp1220
g3
F0.8933502
sg4
F0.104095921
sg5
F2.2611739e-05
sg6
F8.591522e-06
sg7
F4.875361e-06
sg8
F6.06261437e-06
sg9
F0.00090499717
sg10
F0.0016067602
ssS'A034.png'
p1221
(dp1222
g3
F0.00123475958
sg4
F0.9978674
sg5
F1.65507117e-05
sg6
F2.12628546e-08
sg7
F1.73712664e-07
sg8
F8.94766458e-07
sg9
F3.70626964e-07
sg10
F0.0008798396
ssS'A346.png'
p1223
(dp1224
g3
F0.9462259
sg4
F0.0318568274
sg5
F0.000352176256
sg6
F0.000155358328
sg7
F0.0002908716
sg8
F3.37393e-05
sg9
F0.00186272629
sg10
F0.019222416
ssS'A338.png'
p1225
(dp1226
g3
F0.973941565
sg4
F0.0191550236
sg5
F4.351015e-05
sg6
F0.000143943747
sg7
F5.8682348e-05
sg8
F9.432497e-06
sg9
F0.0007404718
sg10
F0.00590737769
ssS'B32.png'
p1227
(dp1228
g3
F0.000944727333
sg4
F0.9990474
sg5
F2.90009474e-08
sg6
F8.852346e-10
sg7
F1.1393031e-09
sg8
F5.65261856e-12
sg9
F4.811432e-10
sg10
F7.818713e-06
ssS'A329.png'
p1229
(dp1230
g3
F0.983188033
sg4
F0.007986777
sg5
F4.20684555e-05
sg6
F0.000875128258
sg7
F3.05690774e-05
sg8
F8.347848e-06
sg9
F0.000534160936
sg10
F0.0073349243
ssS'A141.png'
p1231
(dp1232
g3
F0.02797451
sg4
F0.9716064
sg5
F4.454151e-06
sg6
F8.32141e-08
sg7
F4.92416348e-08
sg8
F1.34232936e-09
sg9
F7.065657e-08
sg10
F0.00041443322
ssS'A96.png'
p1233
(dp1234
g3
F0.0121750394
sg4
F2.20608982e-07
sg5
F0.0008463387
sg6
F2.5863344e-06
sg7
F4.729079e-06
sg8
F0.00140330626
sg9
F0.9850879
sg10
F0.000479908718
ssS'A304.png'
p1235
(dp1236
g3
F0.985147834
sg4
F0.00286336942
sg5
F4.601175e-05
sg6
F0.00107611727
sg7
F0.0006437763
sg8
F6.918337e-05
sg9
F0.00717613753
sg10
F0.00297757518
ssS'A349.png'
p1237
(dp1238
g3
F0.97050947
sg4
F0.0181800183
sg5
F0.0004335205
sg6
F0.000225860524
sg7
F0.000439504161
sg8
F0.000128389147
sg9
F0.004773788
sg10
F0.00530944951
ssS'A223.png'
p1239
(dp1240
g3
F3.45049415e-07
sg4
F0.9999994
sg5
F2.47748719e-08
sg6
F1.05981108e-13
sg7
F1.44912684e-12
sg8
F5.369509e-14
sg9
F2.54482165e-11
sg10
F2.10598856e-07
ssS'A81.png'
p1241
(dp1242
g3
F0.0439556725
sg4
F5.346426e-05
sg5
F7.74015352e-05
sg6
F2.11720874e-07
sg7
F3.856417e-07
sg8
F9.316928e-05
sg9
F0.955710351
sg10
F0.000109317836
ssS'A14.png'
p1243
(dp1244
g3
F2.403896e-05
sg4
F0.999964654
sg5
F1.08662768e-08
sg6
F9.936578e-13
sg7
F3.501537e-10
sg8
F3.785555e-12
sg9
F5.887927e-12
sg10
F1.1271648e-05
ssS'A10.png'
p1245
(dp1246
g3
F9.672641e-07
sg4
F0.9999987
sg5
F1.85939653e-10
sg6
F9.144923e-14
sg7
F4.95244037e-12
sg8
F3.642669e-13
sg9
F3.25543878e-15
sg10
F3.23533442e-07
ssS'A022.png'
p1247
(dp1248
g3
F0.000305804337
sg4
F0.9996134
sg5
F7.516407e-08
sg6
F2.81007561e-11
sg7
F1.34754545e-08
sg8
F1.14895878e-10
sg9
F1.24547608e-10
sg10
F8.072804e-05
ssS'B55.png'
p1249
(dp1250
g3
F0.412292659
sg4
F0.5768637
sg5
F0.00174900307
sg6
F0.0004525789
sg7
F0.000131952882
sg8
F3.391889e-05
sg9
F0.0009820659
sg10
F0.0074941027
ssS'A059.png'
p1251
(dp1252
g3
F0.00643451232
sg4
F0.00110788841
sg5
F0.000178240429
sg6
F4.472595e-08
sg7
F1.16059709e-06
sg8
F0.00192285178
sg9
F0.9897989
sg10
F0.0005564197
ssS'B93.png'
p1253
(dp1254
g3
F0.843596041
sg4
F0.0020324653
sg5
F0.0003794761
sg6
F0.000221468508
sg7
F5.52069978e-05
sg8
F3.785405e-05
sg9
F0.1513441
sg10
F0.00233338634
ssS'A023.png'
p1255
(dp1256
g3
F7.474117e-05
sg4
F0.9998938
sg5
F1.192537e-08
sg6
F2.4246577e-13
sg7
F4.30754626e-10
sg8
F1.45537749e-12
sg9
F3.1263693e-11
sg10
F3.145831e-05
ssS'C19.png'
p1257
(dp1258
g3
F3.336879e-08
sg4
F0.99999994
sg5
F7.63789254e-10
sg6
F9.063454e-15
sg7
F6.42117436e-13
sg8
F9.14653451e-15
sg9
F4.390569e-13
sg10
F2.87996049e-09
ssS'A54.png'
p1259
(dp1260
g3
F0.009090083
sg4
F0.0179105084
sg5
F0.000295880949
sg6
F6.748874e-08
sg7
F2.08425558e-06
sg8
F0.00266224565
sg9
F0.9690315
sg10
F0.00100759335
ssS'A026.png'
p1261
(dp1262
g3
F0.000471936015
sg4
F0.999286354
sg5
F2.90470575e-06
sg6
F8.9937463e-10
sg7
F1.95273159e-07
sg8
F1.88292244e-08
sg9
F2.75603917e-09
sg10
F0.00023858143
ssS'A178.png'
p1263
(dp1264
g3
F0.957888067
sg4
F0.00405512145
sg5
F0.000578972045
sg6
F0.0007693841
sg7
F0.000153612011
sg8
F5.19036439e-05
sg9
F0.0327705964
sg10
F0.00373232015
ssS'A042.png'
p1265
(dp1266
g3
F0.0239073075
sg4
F0.8879767
sg5
F0.0005527727
sg6
F9.032776e-08
sg7
F6.47685056e-06
sg8
F0.000821883848
sg9
F0.08326616
sg10
F0.0034685994
ssS'A091.png'
p1267
(dp1268
g3
F0.0131670823
sg4
F2.31532431e-06
sg5
F0.000320605061
sg6
F1.59193507e-06
sg7
F4.589121e-07
sg8
F0.000131215158
sg9
F0.98586905
sg10
F0.000507704739
ssS'A23.png'
p1269
(dp1270
g3
F0.000174227956
sg4
F0.999753654
sg5
F1.0842129e-07
sg6
F2.94031778e-11
sg7
F1.25722384e-08
sg8
F2.12869417e-10
sg9
F9.90055538e-11
sg10
F7.202342e-05
ssS'A83.png'
p1271
(dp1272
g3
F0.0195059534
sg4
F7.635206e-06
sg5
F0.000361604965
sg6
F4.37315265e-07
sg7
F6.730002e-07
sg8
F0.000138409887
sg9
F0.9795955
sg10
F0.000389816123
ssS'A249.png'
p1273
(dp1274
g3
F0.0206862334
sg4
F0.962716043
sg5
F0.008865074
sg6
F4.61014633e-06
sg7
F6.39152677e-06
sg8
F3.55453767e-06
sg9
F5.8452737e-05
sg10
F0.00765961
ssS'A383.png'
p1275
(dp1276
g3
F0.985872746
sg4
F0.0125615541
sg5
F2.85323654e-06
sg6
F1.48901222e-06
sg7
F1.03444859e-06
sg8
F2.35901825e-06
sg9
F0.00105660071
sg10
F0.000501357368
ssS'A099.png'
p1277
(dp1278
g3
F0.00427015126
sg4
F3.59497534e-08
sg5
F0.000316843682
sg6
F5.746423e-07
sg7
F9.560074e-07
sg8
F0.0002946421
sg9
F0.994926155
sg10
F0.000190640611
ssS'A118.png'
p1279
(dp1280
g3
F8.82123459e-08
sg4
F0.99999994
sg5
F3.939047e-12
sg6
F1.02830579e-14
sg7
F1.155023e-13
sg8
F1.42651651e-16
sg9
F9.0251225e-15
sg10
F7.249668e-10
ssS'B57.png'
p1281
(dp1282
g3
F0.572775245
sg4
F0.420056015
sg5
F0.00123582361
sg6
F0.000296367478
sg7
F8.567335e-05
sg8
F2.25447184e-05
sg9
F0.000962700869
sg10
F0.00456563
ssS'B54.png'
p1283
(dp1284
g3
F0.303612053
sg4
F0.680127144
sg5
F0.00167414837
sg6
F0.000182966542
sg7
F5.596931e-05
sg8
F1.729594e-05
sg9
F0.0005738389
sg10
F0.0137566049
ssS'A219.png'
p1285
(dp1286
g3
F3.336879e-08
sg4
F0.99999994
sg5
F7.63789254e-10
sg6
F9.063454e-15
sg7
F6.42117436e-13
sg8
F9.14653451e-15
sg9
F4.390569e-13
sg10
F2.87996049e-09
ssS'A076.png'
p1287
(dp1288
g3
F0.002259811
sg4
F9.575424e-06
sg5
F0.000116893309
sg6
F2.14007123e-08
sg7
F1.601342e-08
sg8
F1.49466259e-05
sg9
F0.9975215
sg10
F7.722449e-05
ssS'B48.png'
p1289
(dp1290
g3
F0.16113095
sg4
F0.8332179
sg5
F0.000427451945
sg6
F6.35323959e-05
sg7
F1.66323171e-05
sg8
F1.96470887e-06
sg9
F5.50541663e-05
sg10
F0.005086471
ssS'A32.png'
p1291
(dp1292
g3
F0.00110364961
sg4
F0.998517931
sg5
F7.113604e-06
sg6
F1.70290448e-09
sg7
F1.8230044e-07
sg8
F2.50669075e-07
sg9
F2.516022e-07
sg10
F0.000370591268
ssS'A323.png'
p1293
(dp1294
g3
F0.9953523
sg4
F0.00172162044
sg5
F9.076949e-06
sg6
F2.58980472e-05
sg7
F8.134647e-06
sg8
F9.573148e-07
sg9
F0.000481839175
sg10
F0.0024001284
ssS'A21.png'
p1295
(dp1296
g3
F0.000270684541
sg4
F0.9996351
sg5
F2.36479792e-07
sg6
F8.502865e-11
sg7
F8.752661e-09
sg8
F3.45115325e-10
sg9
F2.21567042e-10
sg10
F9.399177e-05
ssS'A49.png'
p1297
(dp1298
g3
F0.0731318742
sg4
F0.3246983
sg5
F0.00346284872
sg6
F8.665513e-06
sg7
F6.239051e-05
sg8
F0.0236774143
sg9
F0.5642311
sg10
F0.0107274307
ssS'A47.png'
p1299
(dp1300
g3
F0.07760266
sg4
F0.6670385
sg5
F0.00250798464
sg6
F5.322465e-06
sg7
F0.000111396846
sg8
F0.0211914051
sg9
F0.222508967
sg10
F0.009033736
ssS'B9.png'
p1301
(dp1302
g3
F4.38948966e-09
sg4
F1.0
sg5
F5.82695e-14
sg6
F2.04764226e-17
sg7
F3.15381537e-15
sg8
F5.584372e-20
sg9
F1.59785966e-17
sg10
F4.965483e-11
ssS'A345.png'
p1303
(dp1304
g3
F0.983866036
sg4
F0.010598978
sg5
F4.45551741e-05
sg6
F6.735649e-05
sg7
F0.00016361766
sg8
F5.323867e-05
sg9
F0.00212366832
sg10
F0.00308255525
ssS'A306.png'
p1305
(dp1306
g3
F0.9846889
sg4
F0.00292219385
sg5
F4.0715644e-05
sg6
F0.00077304407
sg7
F0.000191905783
sg8
F5.66721938e-05
sg9
F0.007951956
sg10
F0.003374612
ssS'C7.png'
p1307
(dp1308
g3
F4.93438845e-09
sg4
F1.0
sg5
F4.2562693e-11
sg6
F1.36906748e-13
sg7
F2.143894e-13
sg8
F5.03987865e-15
sg9
F1.56226025e-13
sg10
F1.30289654e-10
ssS'C46.png'
p1309
(dp1310
g3
F0.00169404852
sg4
F0.9973145
sg5
F0.00020636573
sg6
F2.7639814e-08
sg7
F1.04306395e-07
sg8
F1.07316067e-08
sg9
F1.3719972e-07
sg10
F0.000784786767
ssS'A297.png'
p1311
(dp1312
g3
F0.8156018
sg4
F0.00148316682
sg5
F0.009912322
sg6
F0.0135440547
sg7
F0.000318084582
sg8
F0.000201515417
sg9
F0.122353986
sg10
F0.03658503
ssS'B68.png'
p1313
(dp1314
g3
F0.9422161
sg4
F0.04472637
sg5
F0.000326578534
sg6
F0.000246449054
sg7
F0.0001865344
sg8
F5.175271e-05
sg9
F0.009047379
sg10
F0.00319886021
ssS'A298.png'
p1315
(dp1316
g3
F0.797533154
sg4
F0.00453146175
sg5
F0.0263532158
sg6
F0.0129480427
sg7
F0.000275161641
sg8
F0.0003515882
sg9
F0.114672892
sg10
F0.04333448
ssS'C59.png'
p1317
(dp1318
g3
F0.146802992
sg4
F0.597743034
sg5
F0.116059646
sg6
F0.00324569852
sg7
F0.00180902041
sg8
F0.00421418855
sg9
F0.0284655187
sg10
F0.101659924
ssS'A45.png'
p1319
(dp1320
g3
F0.0422391966
sg4
F0.8267924
sg5
F0.0004488717
sg6
F1.64376232e-07
sg7
F6.37625544e-06
sg8
F0.0006330359
sg9
F0.125926048
sg10
F0.00395388342
ssS'A342.png'
p1321
(dp1322
g3
F0.9788721
sg4
F0.0141735226
sg5
F9.100783e-05
sg6
F0.000115537026
sg7
F0.000137246025
sg8
F7.775453e-05
sg9
F0.00388096436
sg10
F0.00265185814
ssS'A137.png'
p1323
(dp1324
g3
F0.007871319
sg4
F0.991934538
sg5
F3.30220632e-06
sg6
F8.75103936e-08
sg7
F3.75317981e-08
sg8
F8.42085734e-10
sg9
F2.53820147e-08
sg10
F0.0001907094
ssS'A097.png'
p1325
(dp1326
g3
F0.0180384386
sg4
F1.0771442e-07
sg5
F0.0002194027
sg6
F1.46673824e-06
sg7
F3.228642e-06
sg8
F0.0009792277
sg9
F0.980651557
sg10
F0.0001065454
ssS'A213.png'
p1327
(dp1328
g3
F3.50963454e-08
sg4
F0.99999994
sg5
F1.00942754e-09
sg6
F1.09060012e-13
sg7
F1.02067432e-12
sg8
F3.95326844e-14
sg9
F1.28472309e-12
sg10
F5.94213734e-10
ssS'A056.png'
p1329
(dp1330
g3
F0.0719808862
sg4
F0.0572796874
sg5
F0.00209319661
sg6
F5.39001849e-06
sg7
F3.31293959e-05
sg8
F0.007970092
sg9
F0.8563776
sg10
F0.00426004175
ssS'C21.png'
p1331
(dp1332
g3
F6.98086e-08
sg4
F0.99999994
sg5
F1.968643e-09
sg6
F8.866072e-15
sg7
F2.87234022e-13
sg8
F3.643573e-15
sg9
F7.14134643e-13
sg10
F5.61246472e-09
ssS'A296.png'
p1333
(dp1334
g3
F0.749309957
sg4
F0.003502753
sg5
F0.0319732837
sg6
F0.0125947623
sg7
F0.000356335484
sg8
F0.00039806345
sg9
F0.127791822
sg10
F0.07407303
ssS'A75.png'
p1335
(dp1336
g3
F0.000111630769
sg4
F2.70258926e-08
sg5
F0.000399434357
sg6
F7.813812e-10
sg7
F2.972803e-08
sg8
F0.000147904226
sg9
F0.9992672
sg10
F7.3776675e-05
ssS'A102.png'
p1337
(dp1338
g3
F1.09609474e-10
sg4
F1.0
sg5
F2.494168e-16
sg6
F4.38431533e-18
sg7
F7.289107e-16
sg8
F5.23793317e-20
sg9
F5.94399167e-19
sg10
F9.086133e-14
ssS'A192.png'
p1339
(dp1340
g3
F0.924904346
sg4
F0.00177091837
sg5
F0.000405387924
sg6
F0.000569726
sg7
F0.000141681638
sg8
F6.331478e-05
sg9
F0.07044288
sg10
F0.00170174753
ssS'A135.png'
p1341
(dp1342
g3
F0.004010812
sg4
F0.9957852
sg5
F2.90073513e-06
sg6
F3.48785e-08
sg7
F3.057444e-08
sg8
F9.251437e-10
sg9
F2.28238477e-08
sg10
F0.000201033283
ssS'C76.png'
p1343
(dp1344
g3
F0.4293886
sg4
F0.127153173
sg5
F0.12153028
sg6
F0.0102871014
sg7
F0.0008241332
sg8
F0.00113974791
sg9
F0.02986433
sg10
F0.279812634
ssS'A175.png'
p1345
(dp1346
g3
F0.9700283
sg4
F0.00617558463
sg5
F0.000297431048
sg6
F0.00022461552
sg7
F0.000119736687
sg8
F2.80550048e-05
sg9
F0.0205055941
sg10
F0.002620714
ssS'C34.png'
p1347
(dp1348
g3
F2.339748e-05
sg4
F0.9999634
sg5
F1.83675456e-06
sg6
F3.46521336e-12
sg7
F1.15119525e-10
sg8
F2.82350315e-12
sg9
F7.002174e-10
sg10
F1.13562255e-05
ssS'A199.png'
p1349
(dp1350
g3
F0.891701
sg4
F0.00119637768
sg5
F0.000361641025
sg6
F0.000576442049
sg7
F0.000128217944
sg8
F3.670942e-05
sg9
F0.0997164
sg10
F0.006283222
ssS'C83.png'
p1351
(dp1352
g3
F0.518347859
sg4
F0.0483404957
sg5
F0.130651221
sg6
F0.0122461691
sg7
F0.0009690275
sg8
F0.00115996762
sg9
F0.0542015545
sg10
F0.234083727
ssS'C55.png'
p1353
(dp1354
g3
F0.07624557
sg4
F0.83046484
sg5
F0.0404206775
sg6
F0.000617752259
sg7
F0.000147215673
sg8
F0.0005254809
sg9
F0.00267477822
sg10
F0.0489037074
ssS'C23.png'
p1355
(dp1356
g3
F3.45049415e-07
sg4
F0.9999994
sg5
F2.47748719e-08
sg6
F1.05981108e-13
sg7
F1.44912684e-12
sg8
F5.369509e-14
sg9
F2.54482165e-11
sg10
F2.10598856e-07
ssS'A169.png'
p1357
(dp1358
g3
F0.9533298
sg4
F0.0303662661
sg5
F0.0004521873
sg6
F0.000569965632
sg7
F0.000177647074
sg8
F3.356839e-05
sg9
F0.008187074
sg10
F0.006883479
ssS'A398.png'
p1359
(dp1360
g3
F0.7692783
sg4
F0.2293641
sg5
F1.91881782e-06
sg6
F1.29447972e-06
sg7
F5.30257239e-07
sg8
F2.77361437e-07
sg9
F0.000176201414
sg10
F0.0011773986
ssS'A100.png'
p1361
(dp1362
g3
F0.005537041
sg4
F3.6187906e-08
sg5
F0.000292104931
sg6
F9.05370939e-07
sg7
F1.19920207e-06
sg8
F0.000307551323
sg9
F0.993675947
sg10
F0.000185207711
ssS'A114.png'
p1363
(dp1364
g3
F1.22920447e-08
sg4
F1.0
sg5
F3.25225449e-14
sg6
F7.970688e-16
sg7
F3.79301571e-13
sg8
F6.564038e-17
sg9
F1.59219049e-15
sg10
F6.12886044e-12
ssS'A62.png'
p1365
(dp1366
g3
F0.00100700825
sg4
F1.26725927e-05
sg5
F0.000855452265
sg6
F3.871278e-08
sg7
F2.09838092e-07
sg8
F0.000302666245
sg9
F0.9975527
sg10
F0.000269239565
ssS'A272.png'
p1367
(dp1368
g3
F0.372825056
sg4
F0.2933675
sg5
F0.082121186
sg6
F0.00484516146
sg7
F0.00107642484
sg8
F0.00283967424
sg9
F0.04556405
sg10
F0.197360948
ssS'A352.png'
p1369
(dp1370
g3
F0.9320565
sg4
F0.051195927
sg5
F0.0005544338
sg6
F0.000197916961
sg7
F0.000624179258
sg8
F0.0005213015
sg9
F0.006888314
sg10
F0.007961451
ssS'B65.png'
p1371
(dp1372
g3
F0.908858657
sg4
F0.08816478
sg5
F4.240801e-05
sg6
F7.91007e-05
sg7
F1.834122e-05
sg8
F4.01711441e-06
sg9
F0.00167518563
sg10
F0.00115752884
ssS'A268.png'
p1373
(dp1374
g3
F0.259679884
sg4
F0.488518864
sg5
F0.0706563
sg6
F0.00415965728
sg7
F0.0007262736
sg8
F0.000837526866
sg9
F0.009645388
sg10
F0.1657761
ssS'A98.png'
p1375
(dp1376
g3
F0.00357297854
sg4
F5.01943376e-08
sg5
F0.00040842517
sg6
F1.357679e-07
sg7
F5.479896e-07
sg8
F0.000345723354
sg9
F0.9954156
sg10
F0.000256536849
ssS'A188.png'
p1377
(dp1378
g3
F0.9055413
sg4
F0.002193687
sg5
F0.000350115
sg6
F0.0002229477
sg7
F9.05456545e-05
sg8
F5.10061582e-05
sg9
F0.08947068
sg10
F0.002079704
ssS'A216.png'
p1379
(dp1380
g3
F1.99837977e-08
sg4
F1.0
sg5
F4.301025e-10
sg6
F9.065188e-14
sg7
F1.81240667e-12
sg8
F1.44781729e-13
sg9
F2.55850625e-13
sg10
F3.841526e-10
ssS'C81.png'
p1381
(dp1382
g3
F0.511413932
sg4
F0.0266389381
sg5
F0.130864039
sg6
F0.0142156323
sg7
F0.000910922536
sg8
F0.00241746521
sg9
F0.139494747
sg10
F0.174044311
ssS'B70.png'
p1383
(dp1384
g3
F0.9697218
sg4
F0.0208571274
sg5
F0.0001544995
sg6
F0.000198298439
sg7
F5.130779e-05
sg8
F8.727262e-06
sg9
F0.00528884865
sg10
F0.00371941016
ssS'C65.png'
p1385
(dp1386
g3
F0.189383537
sg4
F0.3470742
sg5
F0.154270872
sg6
F0.00322260079
sg7
F0.002058974
sg8
F0.011277982
sg9
F0.127845466
sg10
F0.164866373
ssS'C4.png'
p1387
(dp1388
g3
F1.839681e-08
sg4
F1.0
sg5
F3.23318838e-09
sg6
F1.0604153e-11
sg7
F1.30114261e-11
sg8
F5.65956223e-12
sg9
F7.05508638e-11
sg10
F1.79121815e-10
ssS'C40.png'
p1389
(dp1390
g3
F0.000205192177
sg4
F0.9996875
sg5
F5.34691844e-06
sg6
F2.06640816e-10
sg7
F6.53926158e-09
sg8
F9.45984e-11
sg9
F4.730238e-09
sg10
F0.000101945108
ssS'C75.png'
p1391
(dp1392
g3
F0.3543528
sg4
F0.133019239
sg5
F0.195882753
sg6
F0.0111362142
sg7
F0.001412834
sg8
F0.00370854186
sg9
F0.08726802
sg10
F0.213219613
ssS'A185.png'
p1393
(dp1394
g3
F0.936984241
sg4
F0.00234225043
sg5
F0.000462629658
sg6
F0.000794488355
sg7
F0.00025208306
sg8
F0.000108700769
sg9
F0.055985298
sg10
F0.003070315
ssS'A161.png'
p1395
(dp1396
g3
F0.7137591
sg4
F0.276333123
sg5
F0.0006048026
sg6
F0.0003038686
sg7
F7.077791e-05
sg8
F1.96261462e-05
sg9
F0.00228341576
sg10
F0.00662526535
ssS'A072.png'
p1397
(dp1398
g3
F6.28933849e-05
sg4
F8.45957047e-08
sg5
F0.000136083516
sg6
F1.74274831e-10
sg7
F3.80079745e-09
sg8
F0.000102833743
sg9
F0.999653757
sg10
F4.43377066e-05
ssS'A053.png'
p1399
(dp1400
g3
F0.03294597
sg4
F0.09961401
sg5
F0.00126589637
sg6
F9.197404e-07
sg7
F3.32651725e-05
sg8
F0.0244931746
sg9
F0.838554561
sg10
F0.00309221842
ssS'A025.png'
p1401
(dp1402
g3
F0.0002507585
sg4
F0.999591053
sg5
F4.56638531e-07
sg6
F7.986407e-11
sg7
F4.75635424e-08
sg8
F1.06062181e-09
sg9
F1.01291753e-09
sg10
F0.000157661678
ssS'A144.png'
p1403
(dp1404
g3
F0.02127074
sg4
F0.978249252
sg5
F1.77407419e-05
sg6
F8.68597851e-07
sg7
F3.6492392e-07
sg8
F1.0837403e-08
sg9
F4.513331e-07
sg10
F0.00046056576
ssS'A208.png'
p1405
(dp1406
g3
F1.56601132e-08
sg4
F1.0
sg5
F2.76103362e-09
sg6
F1.88558262e-12
sg7
F3.03032772e-12
sg8
F3.260293e-13
sg9
F3.07449448e-11
sg10
F1.0066737e-10
ss.